
kernel:     file format elf32-i386


Disassembly of section .text:

00100000 <main>:
static void mpmain(void) __attribute__((noreturn));

// Bootstrap processor starts running C code here.
int
main(void)
{
  100000:	8d 4c 24 04          	lea    0x4(%esp),%ecx
  100004:	83 e4 f0             	and    $0xfffffff0,%esp
  100007:	ff 71 fc             	pushl  -0x4(%ecx)
  10000a:	55                   	push   %ebp
  10000b:	89 e5                	mov    %esp,%ebp
  10000d:	53                   	push   %ebx
  10000e:	51                   	push   %ecx
  mpinit(); // collect info about this machine
  10000f:	e8 4c 29 00 00       	call   102960 <mpinit>
  lapicinit(mpbcpu());
  100014:	e8 27 29 00 00       	call   102940 <mpbcpu>
  100019:	83 ec 0c             	sub    $0xc,%esp
  10001c:	50                   	push   %eax
  10001d:	e8 1e 26 00 00       	call   102640 <lapicinit>
  ksegment();
  100022:	e8 a9 31 00 00       	call   1031d0 <ksegment>
  picinit();       // interrupt controller
  100027:	e8 74 2b 00 00       	call   102ba0 <picinit>
  ioapicinit();    // another interrupt controller
  10002c:	e8 ff 21 00 00       	call   102230 <ioapicinit>
  consoleinit();   // I/O devices & their interrupts
  100031:	e8 ca 09 00 00       	call   100a00 <consoleinit>
  uartinit();      // serial port
  100036:	e8 c5 51 00 00       	call   105200 <uartinit>
cprintf("cpus %p cpu %p\n", cpus, cpu);
  10003b:	83 c4 0c             	add    $0xc,%esp
  10003e:	65 ff 35 00 00 00 00 	pushl  %gs:0x0
  100045:	68 a0 da 10 00       	push   $0x10daa0
  10004a:	68 0e 62 10 00       	push   $0x10620e
  10004f:	e8 3c 06 00 00       	call   100690 <cprintf>
  cprintf("\ncpu%d: starting xv6\n\n", cpu->id);
  100054:	65 a1 00 00 00 00    	mov    %gs:0x0,%eax
  10005a:	59                   	pop    %ecx
  10005b:	5b                   	pop    %ebx
  10005c:	0f b6 00             	movzbl (%eax),%eax
  10005f:	50                   	push   %eax
  100060:	68 1e 62 10 00       	push   $0x10621e
  100065:	e8 26 06 00 00       	call   100690 <cprintf>

  kinit();         // physical memory allocator
  10006a:	e8 d1 23 00 00       	call   102440 <kinit>
  pinit();         // process table
  10006f:	e8 6c 30 00 00       	call   1030e0 <pinit>
  tvinit();        // trap vectors
  100074:	e8 27 4e 00 00       	call   104ea0 <tvinit>
  binit();         // buffer cache
  100079:	e8 e2 00 00 00       	call   100160 <binit>
  fileinit();      // file table
  10007e:	e8 bd 0d 00 00       	call   100e40 <fileinit>
  iinit();         // inode cache
  100083:	e8 08 14 00 00       	call   101490 <iinit>
  ideinit();       // disk
  100088:	e8 63 1f 00 00       	call   101ff0 <ideinit>
  if(!ismp)
  10008d:	a1 84 da 10 00       	mov    0x10da84,%eax
  100092:	83 c4 10             	add    $0x10,%esp
  100095:	85 c0                	test   %eax,%eax
  100097:	0f 84 ab 00 00 00    	je     100148 <main+0x148>
    timerinit();   // uniprocessor timer
  userinit();      // first user process
  10009d:	e8 1e 33 00 00       	call   1033c0 <userinit>
  struct cpu *c;
  char *stack;

  // Write bootstrap code to unused memory at 0x7000.
  code = (uchar*)0x7000;
  memmove(code, _binary_bootother_start, (uint)_binary_bootother_size);
  1000a2:	83 ec 04             	sub    $0x4,%esp

  for(c = cpus; c < cpus+ncpu; c++){
  1000a5:	bb a0 da 10 00       	mov    $0x10daa0,%ebx
  memmove(code, _binary_bootother_start, (uint)_binary_bootother_size);
  1000aa:	68 6a 00 00 00       	push   $0x6a
  1000af:	68 34 a7 10 00       	push   $0x10a734
  1000b4:	68 00 70 00 00       	push   $0x7000
  1000b9:	e8 42 3d 00 00       	call   103e00 <memmove>
  for(c = cpus; c < cpus+ncpu; c++){
  1000be:	69 05 80 e0 10 00 bc 	imul   $0xbc,0x10e080,%eax
  1000c5:	00 00 00 
  1000c8:	83 c4 10             	add    $0x10,%esp
  1000cb:	05 a0 da 10 00       	add    $0x10daa0,%eax
  1000d0:	39 d8                	cmp    %ebx,%eax
  1000d2:	76 6f                	jbe    100143 <main+0x143>
  1000d4:	8d 74 26 00          	lea    0x0(%esi,%eiz,1),%esi
    if(c == cpus+cpunum())  // We've started already.
  1000d8:	e8 53 26 00 00       	call   102730 <cpunum>
  1000dd:	69 c0 bc 00 00 00    	imul   $0xbc,%eax,%eax
  1000e3:	05 a0 da 10 00       	add    $0x10daa0,%eax
  1000e8:	39 c3                	cmp    %eax,%ebx
  1000ea:	74 3e                	je     10012a <main+0x12a>
      continue;

    // Fill in %esp, %eip and start code on cpu.
    stack = kalloc(KSTACKSIZE);
  1000ec:	83 ec 0c             	sub    $0xc,%esp
  1000ef:	68 00 10 00 00       	push   $0x1000
  1000f4:	e8 87 23 00 00       	call   102480 <kalloc>
    *(void**)(code-4) = stack + KSTACKSIZE;
  1000f9:	05 00 10 00 00       	add    $0x1000,%eax
    *(void**)(code-8) = mpmain;
  1000fe:	c7 05 f8 6f 00 00 60 	movl   $0x102860,0x6ff8
  100105:	28 10 00 
    *(void**)(code-4) = stack + KSTACKSIZE;
  100108:	a3 fc 6f 00 00       	mov    %eax,0x6ffc
    lapicstartap(c->id, (uint)code);
  10010d:	58                   	pop    %eax
  10010e:	5a                   	pop    %edx
  10010f:	68 00 70 00 00       	push   $0x7000
  100114:	0f b6 03             	movzbl (%ebx),%eax
  100117:	50                   	push   %eax
  100118:	e8 b3 26 00 00       	call   1027d0 <lapicstartap>
  10011d:	83 c4 10             	add    $0x10,%esp

    // Wait for cpu to get through bootstrap.
    while(c->booted == 0)
  100120:	8b 83 a8 00 00 00    	mov    0xa8(%ebx),%eax
  100126:	85 c0                	test   %eax,%eax
  100128:	74 f6                	je     100120 <main+0x120>
  for(c = cpus; c < cpus+ncpu; c++){
  10012a:	69 05 80 e0 10 00 bc 	imul   $0xbc,0x10e080,%eax
  100131:	00 00 00 
  100134:	81 c3 bc 00 00 00    	add    $0xbc,%ebx
  10013a:	05 a0 da 10 00       	add    $0x10daa0,%eax
  10013f:	39 c3                	cmp    %eax,%ebx
  100141:	72 95                	jb     1000d8 <main+0xd8>
  mpmain();
  100143:	e8 18 27 00 00       	call   102860 <mpmain>
    timerinit();   // uniprocessor timer
  100148:	e8 f3 4c 00 00       	call   104e40 <timerinit>
  10014d:	e9 4b ff ff ff       	jmp    10009d <main+0x9d>
  100152:	66 90                	xchg   %ax,%ax
  100154:	66 90                	xchg   %ax,%ax
  100156:	66 90                	xchg   %ax,%ax
  100158:	66 90                	xchg   %ax,%ax
  10015a:	66 90                	xchg   %ax,%ax
  10015c:	66 90                	xchg   %ax,%ax
  10015e:	66 90                	xchg   %ax,%ax

00100160 <binit>:
  struct buf head;
} bcache;

void
binit(void)
{
  100160:	83 ec 14             	sub    $0x14,%esp
  struct buf *b;

  initlock(&bcache.lock, "bcache");
  100163:	68 80 5d 10 00       	push   $0x105d80
  100168:	68 60 a8 10 00       	push   $0x10a860
  10016d:	e8 fe 39 00 00       	call   103b70 <initlock>

  // Create linked list of buffers
  bcache.head.prev = &bcache.head;
  100172:	c7 05 90 bd 10 00 84 	movl   $0x10bd84,0x10bd90
  100179:	bd 10 00 
  bcache.head.next = &bcache.head;
  10017c:	c7 05 94 bd 10 00 84 	movl   $0x10bd84,0x10bd94
  100183:	bd 10 00 
  100186:	83 c4 10             	add    $0x10,%esp
  100189:	b9 84 bd 10 00       	mov    $0x10bd84,%ecx
  for(b = bcache.buf; b < bcache.buf+NBUF; b++){
  10018e:	b8 94 a8 10 00       	mov    $0x10a894,%eax
  100193:	eb 05                	jmp    10019a <binit+0x3a>
  100195:	8d 76 00             	lea    0x0(%esi),%esi
  100198:	89 d0                	mov    %edx,%eax
    b->next = bcache.head.next;
  10019a:	89 48 10             	mov    %ecx,0x10(%eax)
    b->prev = &bcache.head;
  10019d:	c7 40 0c 84 bd 10 00 	movl   $0x10bd84,0xc(%eax)
  1001a4:	89 c1                	mov    %eax,%ecx
    b->dev = -1;
  1001a6:	c7 40 04 ff ff ff ff 	movl   $0xffffffff,0x4(%eax)
    bcache.head.next->prev = b;
  1001ad:	8b 15 94 bd 10 00    	mov    0x10bd94,%edx
  1001b3:	89 42 0c             	mov    %eax,0xc(%edx)
  for(b = bcache.buf; b < bcache.buf+NBUF; b++){
  1001b6:	8d 90 18 02 00 00    	lea    0x218(%eax),%edx
    bcache.head.next = b;
  1001bc:	a3 94 bd 10 00       	mov    %eax,0x10bd94
  for(b = bcache.buf; b < bcache.buf+NBUF; b++){
  1001c1:	81 fa 84 bd 10 00    	cmp    $0x10bd84,%edx
  1001c7:	72 cf                	jb     100198 <binit+0x38>
  }
}
  1001c9:	83 c4 0c             	add    $0xc,%esp
  1001cc:	c3                   	ret    
  1001cd:	8d 76 00             	lea    0x0(%esi),%esi

001001d0 <bread>:
}

// Return a B_BUSY buf with the contents of the indicated disk sector.
struct buf*
bread(uint dev, uint sector)
{
  1001d0:	57                   	push   %edi
  1001d1:	56                   	push   %esi
  1001d2:	53                   	push   %ebx
  1001d3:	8b 74 24 10          	mov    0x10(%esp),%esi
  1001d7:	8b 7c 24 14          	mov    0x14(%esp),%edi
  acquire(&bcache.lock);
  1001db:	83 ec 0c             	sub    $0xc,%esp
  1001de:	68 60 a8 10 00       	push   $0x10a860
  1001e3:	e8 a8 39 00 00       	call   103b90 <acquire>
  1001e8:	83 c4 10             	add    $0x10,%esp
  for(b = bcache.head.next; b != &bcache.head; b = b->next){
  1001eb:	8b 1d 94 bd 10 00    	mov    0x10bd94,%ebx
  1001f1:	81 fb 84 bd 10 00    	cmp    $0x10bd84,%ebx
  1001f7:	75 12                	jne    10020b <bread+0x3b>
  1001f9:	eb 35                	jmp    100230 <bread+0x60>
  1001fb:	90                   	nop
  1001fc:	8d 74 26 00          	lea    0x0(%esi,%eiz,1),%esi
  100200:	8b 5b 10             	mov    0x10(%ebx),%ebx
  100203:	81 fb 84 bd 10 00    	cmp    $0x10bd84,%ebx
  100209:	74 25                	je     100230 <bread+0x60>
    if(b->dev == dev && b->sector == sector){
  10020b:	3b 73 04             	cmp    0x4(%ebx),%esi
  10020e:	75 f0                	jne    100200 <bread+0x30>
  100210:	3b 7b 08             	cmp    0x8(%ebx),%edi
  100213:	75 eb                	jne    100200 <bread+0x30>
      if(!(b->flags & B_BUSY)){
  100215:	8b 03                	mov    (%ebx),%eax
  100217:	a8 01                	test   $0x1,%al
  100219:	74 68                	je     100283 <bread+0xb3>
      sleep(b, &bcache.lock);
  10021b:	83 ec 08             	sub    $0x8,%esp
  10021e:	68 60 a8 10 00       	push   $0x10a860
  100223:	53                   	push   %ebx
  100224:	e8 67 35 00 00       	call   103790 <sleep>
  100229:	83 c4 10             	add    $0x10,%esp
  10022c:	eb bd                	jmp    1001eb <bread+0x1b>
  10022e:	66 90                	xchg   %ax,%ax
  for(b = bcache.head.prev; b != &bcache.head; b = b->prev){
  100230:	8b 1d 90 bd 10 00    	mov    0x10bd90,%ebx
  100236:	81 fb 84 bd 10 00    	cmp    $0x10bd84,%ebx
  10023c:	75 0d                	jne    10024b <bread+0x7b>
  10023e:	eb 5a                	jmp    10029a <bread+0xca>
  100240:	8b 5b 0c             	mov    0xc(%ebx),%ebx
  100243:	81 fb 84 bd 10 00    	cmp    $0x10bd84,%ebx
  100249:	74 4f                	je     10029a <bread+0xca>
    if((b->flags & B_BUSY) == 0){
  10024b:	f6 03 01             	testb  $0x1,(%ebx)
  10024e:	75 f0                	jne    100240 <bread+0x70>
      release(&bcache.lock);
  100250:	83 ec 0c             	sub    $0xc,%esp
      b->dev = dev;
  100253:	89 73 04             	mov    %esi,0x4(%ebx)
      b->sector = sector;
  100256:	89 7b 08             	mov    %edi,0x8(%ebx)
      b->flags = B_BUSY;
  100259:	c7 03 01 00 00 00    	movl   $0x1,(%ebx)
      release(&bcache.lock);
  10025f:	68 60 a8 10 00       	push   $0x10a860
  100264:	e8 c7 3a 00 00       	call   103d30 <release>
  100269:	83 c4 10             	add    $0x10,%esp
  struct buf *b;

  b = bget(dev, sector);
  if(!(b->flags & B_VALID))
  10026c:	f6 03 02             	testb  $0x2,(%ebx)
  10026f:	75 0c                	jne    10027d <bread+0xad>
    iderw(b);
  100271:	83 ec 0c             	sub    $0xc,%esp
  100274:	53                   	push   %ebx
  100275:	e8 c6 1e 00 00       	call   102140 <iderw>
  10027a:	83 c4 10             	add    $0x10,%esp
  return b;
}
  10027d:	89 d8                	mov    %ebx,%eax
  10027f:	5b                   	pop    %ebx
  100280:	5e                   	pop    %esi
  100281:	5f                   	pop    %edi
  100282:	c3                   	ret    
        release(&bcache.lock);
  100283:	83 ec 0c             	sub    $0xc,%esp
        b->flags |= B_BUSY;
  100286:	83 c8 01             	or     $0x1,%eax
  100289:	89 03                	mov    %eax,(%ebx)
        release(&bcache.lock);
  10028b:	68 60 a8 10 00       	push   $0x10a860
  100290:	e8 9b 3a 00 00       	call   103d30 <release>
  100295:	83 c4 10             	add    $0x10,%esp
  100298:	eb d2                	jmp    10026c <bread+0x9c>
  panic("bget: no buffers");
  10029a:	83 ec 0c             	sub    $0xc,%esp
  10029d:	68 87 5d 10 00       	push   $0x105d87
  1002a2:	e8 69 05 00 00       	call   100810 <panic>
  1002a7:	89 f6                	mov    %esi,%esi
  1002a9:	8d bc 27 00 00 00 00 	lea    0x0(%edi,%eiz,1),%edi

001002b0 <bwrite>:

// Write b's contents to disk.  Must be locked.
void
bwrite(struct buf *b)
{
  1002b0:	83 ec 0c             	sub    $0xc,%esp
  1002b3:	8b 54 24 10          	mov    0x10(%esp),%edx
  if((b->flags & B_BUSY) == 0)
  1002b7:	8b 02                	mov    (%edx),%eax
  1002b9:	a8 01                	test   $0x1,%al
  1002bb:	74 11                	je     1002ce <bwrite+0x1e>
    panic("bwrite");
  b->flags |= B_DIRTY;
  1002bd:	83 c8 04             	or     $0x4,%eax
  1002c0:	89 02                	mov    %eax,(%edx)
  iderw(b);
  1002c2:	89 54 24 10          	mov    %edx,0x10(%esp)
}
  1002c6:	83 c4 0c             	add    $0xc,%esp
  iderw(b);
  1002c9:	e9 72 1e 00 00       	jmp    102140 <iderw>
    panic("bwrite");
  1002ce:	83 ec 0c             	sub    $0xc,%esp
  1002d1:	68 98 5d 10 00       	push   $0x105d98
  1002d6:	e8 35 05 00 00       	call   100810 <panic>
  1002db:	90                   	nop
  1002dc:	8d 74 26 00          	lea    0x0(%esi,%eiz,1),%esi

001002e0 <brelse>:

// Release the buffer b.
void
brelse(struct buf *b)
{
  1002e0:	53                   	push   %ebx
  1002e1:	83 ec 08             	sub    $0x8,%esp
  1002e4:	8b 5c 24 10          	mov    0x10(%esp),%ebx
  if((b->flags & B_BUSY) == 0)
  1002e8:	f6 03 01             	testb  $0x1,(%ebx)
  1002eb:	74 58                	je     100345 <brelse+0x65>
    panic("brelse");

  acquire(&bcache.lock);
  1002ed:	83 ec 0c             	sub    $0xc,%esp
  1002f0:	68 60 a8 10 00       	push   $0x10a860
  1002f5:	e8 96 38 00 00       	call   103b90 <acquire>

  b->next->prev = b->prev;
  1002fa:	8b 43 10             	mov    0x10(%ebx),%eax
  1002fd:	8b 53 0c             	mov    0xc(%ebx),%edx
  100300:	89 50 0c             	mov    %edx,0xc(%eax)
  b->prev->next = b->next;
  100303:	8b 43 0c             	mov    0xc(%ebx),%eax
  100306:	8b 53 10             	mov    0x10(%ebx),%edx
  100309:	89 50 10             	mov    %edx,0x10(%eax)
  b->next = bcache.head.next;
  10030c:	a1 94 bd 10 00       	mov    0x10bd94,%eax
  b->prev = &bcache.head;
  100311:	c7 43 0c 84 bd 10 00 	movl   $0x10bd84,0xc(%ebx)
  b->next = bcache.head.next;
  100318:	89 43 10             	mov    %eax,0x10(%ebx)
  bcache.head.next->prev = b;
  10031b:	a1 94 bd 10 00       	mov    0x10bd94,%eax
  100320:	89 58 0c             	mov    %ebx,0xc(%eax)
  bcache.head.next = b;
  100323:	89 1d 94 bd 10 00    	mov    %ebx,0x10bd94

  b->flags &= ~B_BUSY;
  100329:	83 23 fe             	andl   $0xfffffffe,(%ebx)
  wakeup(b);
  10032c:	89 1c 24             	mov    %ebx,(%esp)
  10032f:	e8 1c 35 00 00       	call   103850 <wakeup>

  release(&bcache.lock);
  100334:	c7 44 24 20 60 a8 10 	movl   $0x10a860,0x20(%esp)
  10033b:	00 
}
  10033c:	83 c4 18             	add    $0x18,%esp
  10033f:	5b                   	pop    %ebx
  release(&bcache.lock);
  100340:	e9 eb 39 00 00       	jmp    103d30 <release>
    panic("brelse");
  100345:	83 ec 0c             	sub    $0xc,%esp
  100348:	68 9f 5d 10 00       	push   $0x105d9f
  10034d:	e8 be 04 00 00       	call   100810 <panic>
  100352:	66 90                	xchg   %ax,%ax
  100354:	66 90                	xchg   %ax,%ax
  100356:	66 90                	xchg   %ax,%ax
  100358:	66 90                	xchg   %ax,%ax
  10035a:	66 90                	xchg   %ax,%ax
  10035c:	66 90                	xchg   %ax,%ax
  10035e:	66 90                	xchg   %ax,%ax

00100360 <consputc>:
}

void
consputc(int c)
{
  if(panicked){
  100360:	8b 0d d8 a7 10 00    	mov    0x10a7d8,%ecx
  100366:	85 c9                	test   %ecx,%ecx
  100368:	74 03                	je     10036d <consputc+0xd>
}

static inline void
cli(void)
{
  asm volatile("cli");
  10036a:	fa                   	cli    
  10036b:	eb fe                	jmp    10036b <consputc+0xb>
{
  10036d:	55                   	push   %ebp
  10036e:	57                   	push   %edi
  asm volatile("out %0,%1" : : "a" (data), "d" (port));
  10036f:	bf d4 03 00 00       	mov    $0x3d4,%edi
  100374:	56                   	push   %esi
  100375:	53                   	push   %ebx
  100376:	89 c3                	mov    %eax,%ebx
  100378:	83 ec 18             	sub    $0x18,%esp
    cli();
    for(;;)
      ;
  }

  uartputc(c);
  10037b:	50                   	push   %eax
  10037c:	e8 3f 4f 00 00       	call   1052c0 <uartputc>
  100381:	b8 0e 00 00 00       	mov    $0xe,%eax
  100386:	89 fa                	mov    %edi,%edx
  100388:	ee                   	out    %al,(%dx)
  asm volatile("in %1,%0" : "=a" (data) : "d" (port));
  100389:	b9 d5 03 00 00       	mov    $0x3d5,%ecx
  10038e:	89 ca                	mov    %ecx,%edx
  100390:	ec                   	in     (%dx),%al
  pos = inb(CRTPORT+1) << 8;
  100391:	0f b6 c0             	movzbl %al,%eax
  asm volatile("out %0,%1" : : "a" (data), "d" (port));
  100394:	89 fa                	mov    %edi,%edx
  100396:	c1 e0 08             	shl    $0x8,%eax
  100399:	89 c6                	mov    %eax,%esi
  10039b:	b8 0f 00 00 00       	mov    $0xf,%eax
  1003a0:	ee                   	out    %al,(%dx)
  asm volatile("in %1,%0" : "=a" (data) : "d" (port));
  1003a1:	89 ca                	mov    %ecx,%edx
  1003a3:	ec                   	in     (%dx),%al
  pos |= inb(CRTPORT+1);
  1003a4:	0f b6 c0             	movzbl %al,%eax
  if(c == '\n')
  1003a7:	83 c4 10             	add    $0x10,%esp
  pos |= inb(CRTPORT+1);
  1003aa:	09 f0                	or     %esi,%eax
  if(c == '\n')
  1003ac:	83 fb 0a             	cmp    $0xa,%ebx
  1003af:	74 69                	je     10041a <consputc+0xba>
  else if(c == BACKSPACE){
  1003b1:	81 fb 00 01 00 00    	cmp    $0x100,%ebx
  1003b7:	0f 84 bb 00 00 00    	je     100478 <consputc+0x118>
    crt[pos++] = (c&0xff) | 0x0700;  // black on white
  1003bd:	0f b6 d3             	movzbl %bl,%edx
  1003c0:	8d 70 01             	lea    0x1(%eax),%esi
  1003c3:	80 ce 07             	or     $0x7,%dh
  1003c6:	66 89 94 00 00 80 0b 	mov    %dx,0xb8000(%eax,%eax,1)
  1003cd:	00 
  if((pos/80) >= 24){  // Scroll up.
  1003ce:	81 fe 7f 07 00 00    	cmp    $0x77f,%esi
  1003d4:	7f 5b                	jg     100431 <consputc+0xd1>
  1003d6:	89 f0                	mov    %esi,%eax
  1003d8:	8d 9c 36 00 80 0b 00 	lea    0xb8000(%esi,%esi,1),%ebx
  1003df:	89 f1                	mov    %esi,%ecx
  1003e1:	c1 e8 08             	shr    $0x8,%eax
  1003e4:	89 c7                	mov    %eax,%edi
  asm volatile("out %0,%1" : : "a" (data), "d" (port));
  1003e6:	bd d4 03 00 00       	mov    $0x3d4,%ebp
  1003eb:	b8 0e 00 00 00       	mov    $0xe,%eax
  1003f0:	89 ea                	mov    %ebp,%edx
  1003f2:	ee                   	out    %al,(%dx)
  1003f3:	be d5 03 00 00       	mov    $0x3d5,%esi
  1003f8:	89 f8                	mov    %edi,%eax
  1003fa:	89 f2                	mov    %esi,%edx
  1003fc:	ee                   	out    %al,(%dx)
  1003fd:	b8 0f 00 00 00       	mov    $0xf,%eax
  100402:	89 ea                	mov    %ebp,%edx
  100404:	ee                   	out    %al,(%dx)
  100405:	89 c8                	mov    %ecx,%eax
  100407:	89 f2                	mov    %esi,%edx
  100409:	ee                   	out    %al,(%dx)
  crt[pos] = ' ' | 0x0700;
  10040a:	b8 20 07 00 00       	mov    $0x720,%eax
  10040f:	66 89 03             	mov    %ax,(%ebx)
  cgaputc(c);
}
  100412:	83 c4 0c             	add    $0xc,%esp
  100415:	5b                   	pop    %ebx
  100416:	5e                   	pop    %esi
  100417:	5f                   	pop    %edi
  100418:	5d                   	pop    %ebp
  100419:	c3                   	ret    
    pos += 80 - pos%80;
  10041a:	ba 67 66 66 66       	mov    $0x66666667,%edx
  10041f:	f7 ea                	imul   %edx
  100421:	89 d0                	mov    %edx,%eax
  100423:	c1 e8 05             	shr    $0x5,%eax
  100426:	8d 04 80             	lea    (%eax,%eax,4),%eax
  100429:	c1 e0 04             	shl    $0x4,%eax
  10042c:	8d 70 50             	lea    0x50(%eax),%esi
  10042f:	eb 9d                	jmp    1003ce <consputc+0x6e>
    memmove(crt, crt+80, sizeof(crt[0])*23*80);
  100431:	83 ec 04             	sub    $0x4,%esp
    pos -= 80;
  100434:	83 ee 50             	sub    $0x50,%esi
    memmove(crt, crt+80, sizeof(crt[0])*23*80);
  100437:	68 60 0e 00 00       	push   $0xe60
  10043c:	68 a0 80 0b 00       	push   $0xb80a0
    memset(crt+pos, 0, sizeof(crt[0])*(24*80 - pos));
  100441:	8d 9c 36 00 80 0b 00 	lea    0xb8000(%esi,%esi,1),%ebx
    memmove(crt, crt+80, sizeof(crt[0])*23*80);
  100448:	68 00 80 0b 00       	push   $0xb8000
  10044d:	e8 ae 39 00 00       	call   103e00 <memmove>
    memset(crt+pos, 0, sizeof(crt[0])*(24*80 - pos));
  100452:	b8 80 07 00 00       	mov    $0x780,%eax
  100457:	83 c4 0c             	add    $0xc,%esp
  10045a:	29 f0                	sub    %esi,%eax
  10045c:	01 c0                	add    %eax,%eax
  10045e:	50                   	push   %eax
  10045f:	6a 00                	push   $0x0
  100461:	53                   	push   %ebx
  100462:	e8 19 39 00 00       	call   103d80 <memset>
  100467:	89 f0                	mov    %esi,%eax
  100469:	89 f1                	mov    %esi,%ecx
  10046b:	83 c4 10             	add    $0x10,%esp
  10046e:	c1 e8 08             	shr    $0x8,%eax
  100471:	89 c7                	mov    %eax,%edi
  100473:	e9 6e ff ff ff       	jmp    1003e6 <consputc+0x86>
    if(pos > 0)
  100478:	85 c0                	test   %eax,%eax
  10047a:	74 15                	je     100491 <consputc+0x131>
      crt[--pos] = ' ' | 0x0700;
  10047c:	8d 70 ff             	lea    -0x1(%eax),%esi
  10047f:	ba 20 07 00 00       	mov    $0x720,%edx
  100484:	66 89 94 36 00 80 0b 	mov    %dx,0xb8000(%esi,%esi,1)
  10048b:	00 
  10048c:	e9 3d ff ff ff       	jmp    1003ce <consputc+0x6e>
    if(pos > 0)
  100491:	bb 00 80 0b 00       	mov    $0xb8000,%ebx
  100496:	31 c9                	xor    %ecx,%ecx
  100498:	31 ff                	xor    %edi,%edi
  10049a:	e9 47 ff ff ff       	jmp    1003e6 <consputc+0x86>
  10049f:	90                   	nop

001004a0 <printint>:
{
  1004a0:	57                   	push   %edi
  1004a1:	56                   	push   %esi
  1004a2:	89 d6                	mov    %edx,%esi
  1004a4:	53                   	push   %ebx
  1004a5:	83 ec 10             	sub    $0x10,%esp
  if(sgn && xx < 0){
  1004a8:	85 c9                	test   %ecx,%ecx
  1004aa:	74 64                	je     100510 <printint+0x70>
  1004ac:	89 c2                	mov    %eax,%edx
  1004ae:	c1 ea 1f             	shr    $0x1f,%edx
  1004b1:	84 d2                	test   %dl,%dl
  1004b3:	74 5b                	je     100510 <printint+0x70>
    x = -xx;
  1004b5:	f7 d8                	neg    %eax
    neg = 1;
  1004b7:	bf 01 00 00 00       	mov    $0x1,%edi
  int i = 0, neg = 0;
  1004bc:	31 c9                	xor    %ecx,%ecx
  1004be:	eb 02                	jmp    1004c2 <printint+0x22>
    buf[i++] = digits[x % base];
  1004c0:	89 d9                	mov    %ebx,%ecx
  1004c2:	31 d2                	xor    %edx,%edx
  1004c4:	8d 59 01             	lea    0x1(%ecx),%ebx
  1004c7:	f7 f6                	div    %esi
  1004c9:	0f b6 92 d0 5d 10 00 	movzbl 0x105dd0(%edx),%edx
  }while((x /= base) != 0);
  1004d0:	85 c0                	test   %eax,%eax
    buf[i++] = digits[x % base];
  1004d2:	88 54 1c ff          	mov    %dl,-0x1(%esp,%ebx,1)
  }while((x /= base) != 0);
  1004d6:	75 e8                	jne    1004c0 <printint+0x20>
  if(neg)
  1004d8:	85 ff                	test   %edi,%edi
  1004da:	74 07                	je     1004e3 <printint+0x43>
    buf[i++] = '-';
  1004dc:	c6 04 1c 2d          	movb   $0x2d,(%esp,%ebx,1)
  1004e0:	8d 59 02             	lea    0x2(%ecx),%ebx
  while(--i >= 0)
  1004e3:	83 eb 01             	sub    $0x1,%ebx
  1004e6:	8d 76 00             	lea    0x0(%esi),%esi
  1004e9:	8d bc 27 00 00 00 00 	lea    0x0(%edi,%eiz,1),%edi
    consputc(buf[i]);
  1004f0:	0f be 04 1c          	movsbl (%esp,%ebx,1),%eax
  while(--i >= 0)
  1004f4:	83 eb 01             	sub    $0x1,%ebx
    consputc(buf[i]);
  1004f7:	e8 64 fe ff ff       	call   100360 <consputc>
  while(--i >= 0)
  1004fc:	83 fb ff             	cmp    $0xffffffff,%ebx
  1004ff:	75 ef                	jne    1004f0 <printint+0x50>
}
  100501:	83 c4 10             	add    $0x10,%esp
  100504:	5b                   	pop    %ebx
  100505:	5e                   	pop    %esi
  100506:	5f                   	pop    %edi
  100507:	c3                   	ret    
  100508:	90                   	nop
  100509:	8d b4 26 00 00 00 00 	lea    0x0(%esi,%eiz,1),%esi
  int i = 0, neg = 0;
  100510:	31 ff                	xor    %edi,%edi
  100512:	eb a8                	jmp    1004bc <printint+0x1c>
  100514:	8d b6 00 00 00 00    	lea    0x0(%esi),%esi
  10051a:	8d bf 00 00 00 00    	lea    0x0(%edi),%edi

00100520 <consolewrite>:
  return target - n;
}

int
consolewrite(struct inode *ip, char *buf, int n)
{
  100520:	55                   	push   %ebp
  100521:	57                   	push   %edi
  100522:	56                   	push   %esi
  100523:	53                   	push   %ebx
  100524:	83 ec 18             	sub    $0x18,%esp
  100527:	8b 6c 24 2c          	mov    0x2c(%esp),%ebp
  10052b:	8b 7c 24 34          	mov    0x34(%esp),%edi
  int i;

  iunlock(ip);
  10052f:	55                   	push   %ebp
  100530:	e8 fb 11 00 00       	call   101730 <iunlock>
  acquire(&cons.lock);
  100535:	c7 04 24 a0 a7 10 00 	movl   $0x10a7a0,(%esp)
  10053c:	e8 4f 36 00 00       	call   103b90 <acquire>
  for(i = 0; i < n; i++)
  100541:	83 c4 10             	add    $0x10,%esp
  100544:	8b 5c 24 24          	mov    0x24(%esp),%ebx
  100548:	85 ff                	test   %edi,%edi
  10054a:	8d 34 3b             	lea    (%ebx,%edi,1),%esi
  10054d:	7e 10                	jle    10055f <consolewrite+0x3f>
  10054f:	90                   	nop
    consputc(buf[i] & 0xff);
  100550:	0f b6 03             	movzbl (%ebx),%eax
  100553:	83 c3 01             	add    $0x1,%ebx
  100556:	e8 05 fe ff ff       	call   100360 <consputc>
  for(i = 0; i < n; i++)
  10055b:	39 de                	cmp    %ebx,%esi
  10055d:	75 f1                	jne    100550 <consolewrite+0x30>
  release(&cons.lock);
  10055f:	83 ec 0c             	sub    $0xc,%esp
  100562:	68 a0 a7 10 00       	push   $0x10a7a0
  100567:	e8 c4 37 00 00       	call   103d30 <release>
  ilock(ip);
  10056c:	89 2c 24             	mov    %ebp,(%esp)
  10056f:	e8 ac 10 00 00       	call   101620 <ilock>

  return n;
}
  100574:	83 c4 1c             	add    $0x1c,%esp
  100577:	89 f8                	mov    %edi,%eax
  100579:	5b                   	pop    %ebx
  10057a:	5e                   	pop    %esi
  10057b:	5f                   	pop    %edi
  10057c:	5d                   	pop    %ebp
  10057d:	c3                   	ret    
  10057e:	66 90                	xchg   %ax,%ax

00100580 <consoleread>:
{
  100580:	55                   	push   %ebp
  100581:	57                   	push   %edi
  100582:	56                   	push   %esi
  100583:	53                   	push   %ebx
  100584:	83 ec 28             	sub    $0x28,%esp
  100587:	8b 6c 24 3c          	mov    0x3c(%esp),%ebp
  10058b:	8b 5c 24 44          	mov    0x44(%esp),%ebx
  10058f:	8b 7c 24 40          	mov    0x40(%esp),%edi
  iunlock(ip);
  100593:	55                   	push   %ebp
  100594:	e8 97 11 00 00       	call   101730 <iunlock>
  acquire(&input.lock);
  100599:	c7 04 24 a0 bf 10 00 	movl   $0x10bfa0,(%esp)
  1005a0:	e8 eb 35 00 00       	call   103b90 <acquire>
  while(n > 0){
  1005a5:	83 c4 10             	add    $0x10,%esp
  1005a8:	31 c0                	xor    %eax,%eax
  1005aa:	85 db                	test   %ebx,%ebx
  1005ac:	0f 8e a0 00 00 00    	jle    100652 <consoleread+0xd2>
  1005b2:	89 de                	mov    %ebx,%esi
    while(input.r == input.w){
  1005b4:	a1 54 c0 10 00       	mov    0x10c054,%eax
  1005b9:	3b 05 58 c0 10 00    	cmp    0x10c058,%eax
  1005bf:	74 29                	je     1005ea <consoleread+0x6a>
  1005c1:	eb 5d                	jmp    100620 <consoleread+0xa0>
  1005c3:	90                   	nop
  1005c4:	8d 74 26 00          	lea    0x0(%esi,%eiz,1),%esi
      sleep(&input.r, &input.lock);
  1005c8:	83 ec 08             	sub    $0x8,%esp
  1005cb:	68 a0 bf 10 00       	push   $0x10bfa0
  1005d0:	68 54 c0 10 00       	push   $0x10c054
  1005d5:	e8 b6 31 00 00       	call   103790 <sleep>
    while(input.r == input.w){
  1005da:	a1 54 c0 10 00       	mov    0x10c054,%eax
  1005df:	83 c4 10             	add    $0x10,%esp
  1005e2:	3b 05 58 c0 10 00    	cmp    0x10c058,%eax
  1005e8:	75 36                	jne    100620 <consoleread+0xa0>
      if(proc->killed){
  1005ea:	65 a1 04 00 00 00    	mov    %gs:0x4,%eax
  1005f0:	8b 40 24             	mov    0x24(%eax),%eax
  1005f3:	85 c0                	test   %eax,%eax
  1005f5:	74 d1                	je     1005c8 <consoleread+0x48>
        release(&input.lock);
  1005f7:	83 ec 0c             	sub    $0xc,%esp
  1005fa:	68 a0 bf 10 00       	push   $0x10bfa0
  1005ff:	e8 2c 37 00 00       	call   103d30 <release>
        ilock(ip);
  100604:	89 2c 24             	mov    %ebp,(%esp)
  100607:	e8 14 10 00 00       	call   101620 <ilock>
        return -1;
  10060c:	83 c4 10             	add    $0x10,%esp
  10060f:	b8 ff ff ff ff       	mov    $0xffffffff,%eax
}
  100614:	83 c4 1c             	add    $0x1c,%esp
  100617:	5b                   	pop    %ebx
  100618:	5e                   	pop    %esi
  100619:	5f                   	pop    %edi
  10061a:	5d                   	pop    %ebp
  10061b:	c3                   	ret    
  10061c:	8d 74 26 00          	lea    0x0(%esi,%eiz,1),%esi
    c = input.buf[input.r++ % INPUT_BUF];
  100620:	8d 50 01             	lea    0x1(%eax),%edx
  100623:	89 15 54 c0 10 00    	mov    %edx,0x10c054
  100629:	89 c2                	mov    %eax,%edx
  10062b:	83 e2 7f             	and    $0x7f,%edx
  10062e:	0f be 92 d4 bf 10 00 	movsbl 0x10bfd4(%edx),%edx
    if(c == C('D')){  // EOF
  100635:	83 fa 04             	cmp    $0x4,%edx
  100638:	74 3a                	je     100674 <consoleread+0xf4>
    *dst++ = c;
  10063a:	83 c7 01             	add    $0x1,%edi
    --n;
  10063d:	83 ee 01             	sub    $0x1,%esi
    if(c == '\n')
  100640:	83 fa 0a             	cmp    $0xa,%edx
    *dst++ = c;
  100643:	88 57 ff             	mov    %dl,-0x1(%edi)
    if(c == '\n')
  100646:	74 35                	je     10067d <consoleread+0xfd>
  while(n > 0){
  100648:	85 f6                	test   %esi,%esi
  10064a:	0f 85 64 ff ff ff    	jne    1005b4 <consoleread+0x34>
  100650:	89 d8                	mov    %ebx,%eax
  100652:	89 44 24 0c          	mov    %eax,0xc(%esp)
  release(&input.lock);
  100656:	83 ec 0c             	sub    $0xc,%esp
  100659:	68 a0 bf 10 00       	push   $0x10bfa0
  10065e:	e8 cd 36 00 00       	call   103d30 <release>
  ilock(ip);
  100663:	89 2c 24             	mov    %ebp,(%esp)
  100666:	e8 b5 0f 00 00       	call   101620 <ilock>
  return target - n;
  10066b:	83 c4 10             	add    $0x10,%esp
  10066e:	8b 44 24 0c          	mov    0xc(%esp),%eax
  100672:	eb a0                	jmp    100614 <consoleread+0x94>
      if(n < target){
  100674:	39 f3                	cmp    %esi,%ebx
  100676:	76 05                	jbe    10067d <consoleread+0xfd>
        input.r--;
  100678:	a3 54 c0 10 00       	mov    %eax,0x10c054
  10067d:	89 d8                	mov    %ebx,%eax
  10067f:	29 f0                	sub    %esi,%eax
  100681:	eb cf                	jmp    100652 <consoleread+0xd2>
  100683:	8d b6 00 00 00 00    	lea    0x0(%esi),%esi
  100689:	8d bc 27 00 00 00 00 	lea    0x0(%edi,%eiz,1),%edi

00100690 <cprintf>:
{
  100690:	55                   	push   %ebp
  100691:	57                   	push   %edi
  100692:	56                   	push   %esi
  100693:	53                   	push   %ebx
  100694:	83 ec 1c             	sub    $0x1c,%esp
  locking = cons.locking;
  100697:	8b 2d d4 a7 10 00    	mov    0x10a7d4,%ebp
  if(locking)
  10069d:	85 ed                	test   %ebp,%ebp
  10069f:	0f 85 1b 01 00 00    	jne    1007c0 <cprintf+0x130>
  for(i = 0; (c = fmt[i] & 0xff) != 0; i++){
  1006a5:	8b 74 24 30          	mov    0x30(%esp),%esi
  1006a9:	0f b6 06             	movzbl (%esi),%eax
  1006ac:	85 c0                	test   %eax,%eax
  1006ae:	74 78                	je     100728 <cprintf+0x98>
{
  1006b0:	8d 7c 24 34          	lea    0x34(%esp),%edi
  1006b4:	31 db                	xor    %ebx,%ebx
  1006b6:	eb 53                	jmp    10070b <cprintf+0x7b>
  1006b8:	90                   	nop
  1006b9:	8d b4 26 00 00 00 00 	lea    0x0(%esi,%eiz,1),%esi
    c = fmt[++i] & 0xff;
  1006c0:	83 c3 01             	add    $0x1,%ebx
  1006c3:	0f b6 14 1e          	movzbl (%esi,%ebx,1),%edx
    if(c == 0)
  1006c7:	85 d2                	test   %edx,%edx
  1006c9:	74 55                	je     100720 <cprintf+0x90>
    switch(c){
  1006cb:	83 fa 70             	cmp    $0x70,%edx
  1006ce:	74 6a                	je     10073a <cprintf+0xaa>
  1006d0:	7f 5e                	jg     100730 <cprintf+0xa0>
  1006d2:	83 fa 25             	cmp    $0x25,%edx
  1006d5:	0f 84 d5 00 00 00    	je     1007b0 <cprintf+0x120>
  1006db:	83 fa 64             	cmp    $0x64,%edx
  1006de:	0f 85 ac 00 00 00    	jne    100790 <cprintf+0x100>
      printint(*argp++, 10, 1);
  1006e4:	8d 47 04             	lea    0x4(%edi),%eax
  1006e7:	b9 01 00 00 00       	mov    $0x1,%ecx
  1006ec:	ba 0a 00 00 00       	mov    $0xa,%edx
  1006f1:	89 44 24 0c          	mov    %eax,0xc(%esp)
  1006f5:	8b 07                	mov    (%edi),%eax
  1006f7:	e8 a4 fd ff ff       	call   1004a0 <printint>
  1006fc:	8b 7c 24 0c          	mov    0xc(%esp),%edi
  for(i = 0; (c = fmt[i] & 0xff) != 0; i++){
  100700:	83 c3 01             	add    $0x1,%ebx
  100703:	0f b6 04 1e          	movzbl (%esi,%ebx,1),%eax
  100707:	85 c0                	test   %eax,%eax
  100709:	74 15                	je     100720 <cprintf+0x90>
    if(c != '%'){
  10070b:	83 f8 25             	cmp    $0x25,%eax
  10070e:	74 b0                	je     1006c0 <cprintf+0x30>
      consputc('%');
  100710:	e8 4b fc ff ff       	call   100360 <consputc>
  for(i = 0; (c = fmt[i] & 0xff) != 0; i++){
  100715:	83 c3 01             	add    $0x1,%ebx
  100718:	0f b6 04 1e          	movzbl (%esi,%ebx,1),%eax
  10071c:	85 c0                	test   %eax,%eax
  10071e:	75 eb                	jne    10070b <cprintf+0x7b>
  if(locking)
  100720:	85 ed                	test   %ebp,%ebp
  100722:	0f 85 b7 00 00 00    	jne    1007df <cprintf+0x14f>
}
  100728:	83 c4 1c             	add    $0x1c,%esp
  10072b:	5b                   	pop    %ebx
  10072c:	5e                   	pop    %esi
  10072d:	5f                   	pop    %edi
  10072e:	5d                   	pop    %ebp
  10072f:	c3                   	ret    
    switch(c){
  100730:	83 fa 73             	cmp    $0x73,%edx
  100733:	74 23                	je     100758 <cprintf+0xc8>
  100735:	83 fa 78             	cmp    $0x78,%edx
  100738:	75 56                	jne    100790 <cprintf+0x100>
      printint(*argp++, 16, 0);
  10073a:	8d 47 04             	lea    0x4(%edi),%eax
  10073d:	31 c9                	xor    %ecx,%ecx
  10073f:	ba 10 00 00 00       	mov    $0x10,%edx
  100744:	89 44 24 0c          	mov    %eax,0xc(%esp)
  100748:	8b 07                	mov    (%edi),%eax
  10074a:	e8 51 fd ff ff       	call   1004a0 <printint>
  10074f:	8b 7c 24 0c          	mov    0xc(%esp),%edi
      break;
  100753:	eb ab                	jmp    100700 <cprintf+0x70>
  100755:	8d 76 00             	lea    0x0(%esi),%esi
      if((s = (char*)*argp++) == 0)
  100758:	8d 47 04             	lea    0x4(%edi),%eax
  10075b:	8b 3f                	mov    (%edi),%edi
  10075d:	89 44 24 0c          	mov    %eax,0xc(%esp)
  100761:	85 ff                	test   %edi,%edi
  100763:	75 13                	jne    100778 <cprintf+0xe8>
  100765:	e9 96 00 00 00       	jmp    100800 <cprintf+0x170>
  10076a:	8d b6 00 00 00 00    	lea    0x0(%esi),%esi
      for(; *s; s++)
  100770:	83 c7 01             	add    $0x1,%edi
        consputc(*s);
  100773:	e8 e8 fb ff ff       	call   100360 <consputc>
      for(; *s; s++)
  100778:	0f be 07             	movsbl (%edi),%eax
  10077b:	84 c0                	test   %al,%al
  10077d:	75 f1                	jne    100770 <cprintf+0xe0>
      if((s = (char*)*argp++) == 0)
  10077f:	8b 7c 24 0c          	mov    0xc(%esp),%edi
  100783:	e9 78 ff ff ff       	jmp    100700 <cprintf+0x70>
  100788:	90                   	nop
  100789:	8d b4 26 00 00 00 00 	lea    0x0(%esi,%eiz,1),%esi
      consputc('%');
  100790:	b8 25 00 00 00       	mov    $0x25,%eax
  100795:	89 54 24 0c          	mov    %edx,0xc(%esp)
  100799:	e8 c2 fb ff ff       	call   100360 <consputc>
      consputc(c);
  10079e:	8b 54 24 0c          	mov    0xc(%esp),%edx
  1007a2:	89 d0                	mov    %edx,%eax
  1007a4:	e8 b7 fb ff ff       	call   100360 <consputc>
      break;
  1007a9:	e9 52 ff ff ff       	jmp    100700 <cprintf+0x70>
  1007ae:	66 90                	xchg   %ax,%ax
      consputc('%');
  1007b0:	b8 25 00 00 00       	mov    $0x25,%eax
  1007b5:	e8 a6 fb ff ff       	call   100360 <consputc>
  1007ba:	e9 56 ff ff ff       	jmp    100715 <cprintf+0x85>
  1007bf:	90                   	nop
    acquire(&cons.lock);
  1007c0:	83 ec 0c             	sub    $0xc,%esp
  1007c3:	68 a0 a7 10 00       	push   $0x10a7a0
  1007c8:	e8 c3 33 00 00       	call   103b90 <acquire>
  for(i = 0; (c = fmt[i] & 0xff) != 0; i++){
  1007cd:	8b 74 24 40          	mov    0x40(%esp),%esi
  1007d1:	83 c4 10             	add    $0x10,%esp
  1007d4:	0f b6 06             	movzbl (%esi),%eax
  1007d7:	85 c0                	test   %eax,%eax
  1007d9:	0f 85 d1 fe ff ff    	jne    1006b0 <cprintf+0x20>
    release(&cons.lock);
  1007df:	83 ec 0c             	sub    $0xc,%esp
  1007e2:	68 a0 a7 10 00       	push   $0x10a7a0
  1007e7:	e8 44 35 00 00       	call   103d30 <release>
  1007ec:	83 c4 10             	add    $0x10,%esp
}
  1007ef:	83 c4 1c             	add    $0x1c,%esp
  1007f2:	5b                   	pop    %ebx
  1007f3:	5e                   	pop    %esi
  1007f4:	5f                   	pop    %edi
  1007f5:	5d                   	pop    %ebp
  1007f6:	c3                   	ret    
  1007f7:	89 f6                	mov    %esi,%esi
  1007f9:	8d bc 27 00 00 00 00 	lea    0x0(%edi,%eiz,1),%edi
      for(; *s; s++)
  100800:	b8 28 00 00 00       	mov    $0x28,%eax
        s = "(null)";
  100805:	bf a6 5d 10 00       	mov    $0x105da6,%edi
  10080a:	e9 61 ff ff ff       	jmp    100770 <cprintf+0xe0>
  10080f:	90                   	nop

00100810 <panic>:
{
  100810:	56                   	push   %esi
  100811:	53                   	push   %ebx
  100812:	83 ec 3c             	sub    $0x3c,%esp
  asm volatile("cli");
  100815:	fa                   	cli    
  cprintf("cpu%d: panic: ", cpu->id);
  100816:	65 a1 00 00 00 00    	mov    %gs:0x0,%eax
  cons.locking = 0;
  10081c:	c7 05 d4 a7 10 00 00 	movl   $0x0,0x10a7d4
  100823:	00 00 00 
  cprintf("cpu%d: panic: ", cpu->id);
  100826:	0f b6 00             	movzbl (%eax),%eax
  100829:	50                   	push   %eax
  10082a:	68 ad 5d 10 00       	push   $0x105dad
  10082f:	e8 5c fe ff ff       	call   100690 <cprintf>
  cprintf(s);
  100834:	58                   	pop    %eax
  100835:	ff 74 24 4c          	pushl  0x4c(%esp)
  100839:	e8 52 fe ff ff       	call   100690 <cprintf>
  cprintf("\n");
  10083e:	c7 04 24 33 62 10 00 	movl   $0x106233,(%esp)
  100845:	e8 46 fe ff ff       	call   100690 <cprintf>
  getcallerpcs(&s, pcs);
  10084a:	5a                   	pop    %edx
  10084b:	59                   	pop    %ecx
  10084c:	8d 5c 24 10          	lea    0x10(%esp),%ebx
  100850:	53                   	push   %ebx
  100851:	8d 44 24 4c          	lea    0x4c(%esp),%eax
  100855:	50                   	push   %eax
  100856:	e8 e5 33 00 00       	call   103c40 <getcallerpcs>
  10085b:	8d 74 24 40          	lea    0x40(%esp),%esi
  10085f:	83 c4 10             	add    $0x10,%esp
  100862:	8d b6 00 00 00 00    	lea    0x0(%esi),%esi
    cprintf(" %p", pcs[i]);
  100868:	83 ec 08             	sub    $0x8,%esp
  10086b:	ff 33                	pushl  (%ebx)
  10086d:	83 c3 04             	add    $0x4,%ebx
  100870:	68 bc 5d 10 00       	push   $0x105dbc
  100875:	e8 16 fe ff ff       	call   100690 <cprintf>
  for(i=0; i<10; i++)
  10087a:	83 c4 10             	add    $0x10,%esp
  10087d:	39 f3                	cmp    %esi,%ebx
  10087f:	75 e7                	jne    100868 <panic+0x58>
  panicked = 1; // freeze other CPU
  100881:	c7 05 d8 a7 10 00 01 	movl   $0x1,0x10a7d8
  100888:	00 00 00 
  10088b:	eb fe                	jmp    10088b <panic+0x7b>
  10088d:	8d 76 00             	lea    0x0(%esi),%esi

00100890 <consoleintr>:
{
  100890:	56                   	push   %esi
  100891:	53                   	push   %ebx
  100892:	83 ec 10             	sub    $0x10,%esp
  100895:	8b 5c 24 1c          	mov    0x1c(%esp),%ebx
  acquire(&input.lock);
  100899:	68 a0 bf 10 00       	push   $0x10bfa0
  10089e:	e8 ed 32 00 00       	call   103b90 <acquire>
  while((c = getc()) >= 0){
  1008a3:	83 c4 10             	add    $0x10,%esp
  1008a6:	8d 76 00             	lea    0x0(%esi),%esi
  1008a9:	8d bc 27 00 00 00 00 	lea    0x0(%edi,%eiz,1),%edi
  1008b0:	ff d3                	call   *%ebx
  1008b2:	85 c0                	test   %eax,%eax
  1008b4:	89 c6                	mov    %eax,%esi
  1008b6:	0f 88 8f 00 00 00    	js     10094b <consoleintr+0xbb>
    switch(c){
  1008bc:	83 fe 10             	cmp    $0x10,%esi
  1008bf:	0f 84 9b 00 00 00    	je     100960 <consoleintr+0xd0>
  1008c5:	83 fe 15             	cmp    $0x15,%esi
  1008c8:	0f 84 d2 00 00 00    	je     1009a0 <consoleintr+0x110>
  1008ce:	83 fe 08             	cmp    $0x8,%esi
  1008d1:	0f 84 99 00 00 00    	je     100970 <consoleintr+0xe0>
      if(c != 0 && input.e-input.r < INPUT_BUF){
  1008d7:	85 f6                	test   %esi,%esi
  1008d9:	74 d5                	je     1008b0 <consoleintr+0x20>
  1008db:	a1 5c c0 10 00       	mov    0x10c05c,%eax
  1008e0:	89 c2                	mov    %eax,%edx
  1008e2:	2b 15 54 c0 10 00    	sub    0x10c054,%edx
  1008e8:	83 fa 7f             	cmp    $0x7f,%edx
  1008eb:	77 c3                	ja     1008b0 <consoleintr+0x20>
        input.buf[input.e++ % INPUT_BUF] = c;
  1008ed:	8d 50 01             	lea    0x1(%eax),%edx
  1008f0:	89 f1                	mov    %esi,%ecx
  1008f2:	83 e0 7f             	and    $0x7f,%eax
  1008f5:	88 88 d4 bf 10 00    	mov    %cl,0x10bfd4(%eax)
        consputc(c);
  1008fb:	89 f0                	mov    %esi,%eax
        input.buf[input.e++ % INPUT_BUF] = c;
  1008fd:	89 15 5c c0 10 00    	mov    %edx,0x10c05c
        consputc(c);
  100903:	e8 58 fa ff ff       	call   100360 <consputc>
        if(c == '\n' || c == C('D') || input.e == input.r+INPUT_BUF){
  100908:	83 fe 0a             	cmp    $0xa,%esi
  10090b:	0f 84 dd 00 00 00    	je     1009ee <consoleintr+0x15e>
  100911:	83 fe 04             	cmp    $0x4,%esi
  100914:	0f 84 d4 00 00 00    	je     1009ee <consoleintr+0x15e>
  10091a:	a1 54 c0 10 00       	mov    0x10c054,%eax
  10091f:	83 e8 80             	sub    $0xffffff80,%eax
  100922:	39 05 5c c0 10 00    	cmp    %eax,0x10c05c
  100928:	75 86                	jne    1008b0 <consoleintr+0x20>
          wakeup(&input.r);
  10092a:	83 ec 0c             	sub    $0xc,%esp
          input.w = input.e;
  10092d:	a3 58 c0 10 00       	mov    %eax,0x10c058
          wakeup(&input.r);
  100932:	68 54 c0 10 00       	push   $0x10c054
  100937:	e8 14 2f 00 00       	call   103850 <wakeup>
  10093c:	83 c4 10             	add    $0x10,%esp
  while((c = getc()) >= 0){
  10093f:	ff d3                	call   *%ebx
  100941:	85 c0                	test   %eax,%eax
  100943:	89 c6                	mov    %eax,%esi
  100945:	0f 89 71 ff ff ff    	jns    1008bc <consoleintr+0x2c>
  release(&input.lock);
  10094b:	c7 44 24 10 a0 bf 10 	movl   $0x10bfa0,0x10(%esp)
  100952:	00 
}
  100953:	83 c4 04             	add    $0x4,%esp
  100956:	5b                   	pop    %ebx
  100957:	5e                   	pop    %esi
  release(&input.lock);
  100958:	e9 d3 33 00 00       	jmp    103d30 <release>
  10095d:	8d 76 00             	lea    0x0(%esi),%esi
      procdump();
  100960:	e8 9b 27 00 00       	call   103100 <procdump>
      break;
  100965:	e9 46 ff ff ff       	jmp    1008b0 <consoleintr+0x20>
  10096a:	8d b6 00 00 00 00    	lea    0x0(%esi),%esi
      if(input.e != input.w){
  100970:	a1 5c c0 10 00       	mov    0x10c05c,%eax
  100975:	3b 05 58 c0 10 00    	cmp    0x10c058,%eax
  10097b:	0f 84 2f ff ff ff    	je     1008b0 <consoleintr+0x20>
        input.e--;
  100981:	83 e8 01             	sub    $0x1,%eax
  100984:	a3 5c c0 10 00       	mov    %eax,0x10c05c
        consputc(BACKSPACE);
  100989:	b8 00 01 00 00       	mov    $0x100,%eax
  10098e:	e8 cd f9 ff ff       	call   100360 <consputc>
  100993:	e9 18 ff ff ff       	jmp    1008b0 <consoleintr+0x20>
  100998:	90                   	nop
  100999:	8d b4 26 00 00 00 00 	lea    0x0(%esi,%eiz,1),%esi
      while(input.e != input.w &&
  1009a0:	a1 5c c0 10 00       	mov    0x10c05c,%eax
  1009a5:	39 05 58 c0 10 00    	cmp    %eax,0x10c058
  1009ab:	75 2b                	jne    1009d8 <consoleintr+0x148>
  1009ad:	e9 fe fe ff ff       	jmp    1008b0 <consoleintr+0x20>
  1009b2:	8d b6 00 00 00 00    	lea    0x0(%esi),%esi
        input.e--;
  1009b8:	a3 5c c0 10 00       	mov    %eax,0x10c05c
        consputc(BACKSPACE);
  1009bd:	b8 00 01 00 00       	mov    $0x100,%eax
  1009c2:	e8 99 f9 ff ff       	call   100360 <consputc>
      while(input.e != input.w &&
  1009c7:	a1 5c c0 10 00       	mov    0x10c05c,%eax
  1009cc:	3b 05 58 c0 10 00    	cmp    0x10c058,%eax
  1009d2:	0f 84 d8 fe ff ff    	je     1008b0 <consoleintr+0x20>
            input.buf[(input.e-1) % INPUT_BUF] != '\n'){
  1009d8:	83 e8 01             	sub    $0x1,%eax
  1009db:	89 c2                	mov    %eax,%edx
  1009dd:	83 e2 7f             	and    $0x7f,%edx
      while(input.e != input.w &&
  1009e0:	80 ba d4 bf 10 00 0a 	cmpb   $0xa,0x10bfd4(%edx)
  1009e7:	75 cf                	jne    1009b8 <consoleintr+0x128>
  1009e9:	e9 c2 fe ff ff       	jmp    1008b0 <consoleintr+0x20>
  1009ee:	a1 5c c0 10 00       	mov    0x10c05c,%eax
  1009f3:	e9 32 ff ff ff       	jmp    10092a <consoleintr+0x9a>
  1009f8:	90                   	nop
  1009f9:	8d b4 26 00 00 00 00 	lea    0x0(%esi,%eiz,1),%esi

00100a00 <consoleinit>:

void
consoleinit(void)
{
  100a00:	83 ec 14             	sub    $0x14,%esp
  initlock(&cons.lock, "console");
  100a03:	68 c0 5d 10 00       	push   $0x105dc0
  100a08:	68 a0 a7 10 00       	push   $0x10a7a0
  100a0d:	e8 5e 31 00 00       	call   103b70 <initlock>
  initlock(&input.lock, "input");
  100a12:	58                   	pop    %eax
  100a13:	5a                   	pop    %edx
  100a14:	68 c8 5d 10 00       	push   $0x105dc8
  100a19:	68 a0 bf 10 00       	push   $0x10bfa0
  100a1e:	e8 4d 31 00 00       	call   103b70 <initlock>

  devsw[CONSOLE].write = consolewrite;
  devsw[CONSOLE].read = consoleread;
  cons.locking = 1;

  picenable(IRQ_KBD);
  100a23:	c7 04 24 01 00 00 00 	movl   $0x1,(%esp)
  devsw[CONSOLE].write = consolewrite;
  100a2a:	c7 05 0c ca 10 00 20 	movl   $0x100520,0x10ca0c
  100a31:	05 10 00 
  devsw[CONSOLE].read = consoleread;
  100a34:	c7 05 08 ca 10 00 80 	movl   $0x100580,0x10ca08
  100a3b:	05 10 00 
  cons.locking = 1;
  100a3e:	c7 05 d4 a7 10 00 01 	movl   $0x1,0x10a7d4
  100a45:	00 00 00 
  picenable(IRQ_KBD);
  100a48:	e8 23 21 00 00       	call   102b70 <picenable>
  ioapicenable(IRQ_KBD, 0);
  100a4d:	59                   	pop    %ecx
  100a4e:	58                   	pop    %eax
  100a4f:	6a 00                	push   $0x0
  100a51:	6a 01                	push   $0x1
  100a53:	e8 98 18 00 00       	call   1022f0 <ioapicenable>
}
  100a58:	83 c4 1c             	add    $0x1c,%esp
  100a5b:	c3                   	ret    
  100a5c:	66 90                	xchg   %ax,%ax
  100a5e:	66 90                	xchg   %ax,%ax

00100a60 <exec>:
#include "x86.h"
#include "elf.h"

int
exec(char *path, char **argv)
{
  100a60:	55                   	push   %ebp
  100a61:	57                   	push   %edi
  100a62:	56                   	push   %esi
  100a63:	53                   	push   %ebx
  100a64:	81 ec 98 00 00 00    	sub    $0x98,%esp
  struct proghdr ph;

  mem = 0;
  sz = 0;

  if((ip = namei(path)) == 0)
  100a6a:	ff b4 24 ac 00 00 00 	pushl  0xac(%esp)
  100a71:	e8 7a 14 00 00       	call   101ef0 <namei>
  100a76:	83 c4 10             	add    $0x10,%esp
  100a79:	85 c0                	test   %eax,%eax
  100a7b:	0f 84 b5 03 00 00    	je     100e36 <exec+0x3d6>
    return -1;
  ilock(ip);
  100a81:	83 ec 0c             	sub    $0xc,%esp
  100a84:	89 c3                	mov    %eax,%ebx
  100a86:	50                   	push   %eax
  100a87:	e8 94 0b 00 00       	call   101620 <ilock>

  // Check ELF header
  if(readi(ip, (char*)&elf, 0, sizeof(elf)) < sizeof(elf))
  100a8c:	6a 34                	push   $0x34
  100a8e:	6a 00                	push   $0x0
  100a90:	8d 44 24 64          	lea    0x64(%esp),%eax
  100a94:	50                   	push   %eax
  100a95:	53                   	push   %ebx
  100a96:	e8 95 0e 00 00       	call   101930 <readi>
  100a9b:	83 c4 20             	add    $0x20,%esp
  100a9e:	83 f8 33             	cmp    $0x33,%eax
  100aa1:	0f 86 44 03 00 00    	jbe    100deb <exec+0x38b>
    goto bad;
  if(elf.magic != ELF_MAGIC)
  100aa7:	81 7c 24 4c 7f 45 4c 	cmpl   $0x464c457f,0x4c(%esp)
  100aae:	46 
  100aaf:	0f 85 36 03 00 00    	jne    100deb <exec+0x38b>
    goto bad;

  // Compute memory size of new process.
  // Program segments.
  for(i=0, off=elf.phoff; i<elf.phnum; i++, off+=sizeof(ph)){
  100ab5:	66 83 7c 24 78 00    	cmpw   $0x0,0x78(%esp)
  100abb:	8b 6c 24 68          	mov    0x68(%esp),%ebp
  100abf:	0f 84 67 03 00 00    	je     100e2c <exec+0x3cc>
  100ac5:	c7 44 24 08 00 00 00 	movl   $0x0,0x8(%esp)
  100acc:	00 
  100acd:	31 ff                	xor    %edi,%edi
  100acf:	8d 74 24 2c          	lea    0x2c(%esp),%esi
  100ad3:	eb 12                	jmp    100ae7 <exec+0x87>
  100ad5:	8d 76 00             	lea    0x0(%esi),%esi
  100ad8:	0f b7 44 24 78       	movzwl 0x78(%esp),%eax
  100add:	83 c7 01             	add    $0x1,%edi
  100ae0:	83 c5 20             	add    $0x20,%ebp
  100ae3:	39 f8                	cmp    %edi,%eax
  100ae5:	7e 3e                	jle    100b25 <exec+0xc5>
    if(readi(ip, (char*)&ph, off, sizeof(ph)) != sizeof(ph))
  100ae7:	6a 20                	push   $0x20
  100ae9:	55                   	push   %ebp
  100aea:	56                   	push   %esi
  100aeb:	53                   	push   %ebx
  100aec:	e8 3f 0e 00 00       	call   101930 <readi>
  100af1:	83 c4 10             	add    $0x10,%esp
  100af4:	83 f8 20             	cmp    $0x20,%eax
  100af7:	0f 85 ee 02 00 00    	jne    100deb <exec+0x38b>
      goto bad;
    if(ph.type != ELF_PROG_LOAD)
  100afd:	83 7c 24 2c 01       	cmpl   $0x1,0x2c(%esp)
  100b02:	75 d4                	jne    100ad8 <exec+0x78>
      continue;
    if(ph.memsz < ph.filesz)
  100b04:	8b 44 24 40          	mov    0x40(%esp),%eax
  100b08:	3b 44 24 3c          	cmp    0x3c(%esp),%eax
  100b0c:	0f 82 d9 02 00 00    	jb     100deb <exec+0x38b>
      goto bad;
    sz += ph.memsz;
  100b12:	01 44 24 08          	add    %eax,0x8(%esp)
  for(i=0, off=elf.phoff; i<elf.phnum; i++, off+=sizeof(ph)){
  100b16:	0f b7 44 24 78       	movzwl 0x78(%esp),%eax
  100b1b:	83 c7 01             	add    $0x1,%edi
  100b1e:	83 c5 20             	add    $0x20,%ebp
  100b21:	39 f8                	cmp    %edi,%eax
  100b23:	7f c2                	jg     100ae7 <exec+0x87>
  100b25:	8b 74 24 08          	mov    0x8(%esp),%esi
  100b29:	81 c6 07 20 00 00    	add    $0x2007,%esi
  }
  
  // Arguments.
  arglen = 0;
  for(argc=0; argv[argc]; argc++)
  100b2f:	8b 84 24 a4 00 00 00 	mov    0xa4(%esp),%eax
  100b36:	8b 00                	mov    (%eax),%eax
  100b38:	85 c0                	test   %eax,%eax
  100b3a:	0f 84 c7 02 00 00    	je     100e07 <exec+0x3a7>
  100b40:	89 74 24 08          	mov    %esi,0x8(%esp)
  100b44:	31 ff                	xor    %edi,%edi
  100b46:	31 ed                	xor    %ebp,%ebp
  100b48:	8b b4 24 a4 00 00 00 	mov    0xa4(%esp),%esi
  100b4f:	eb 09                	jmp    100b5a <exec+0xfa>
  100b51:	8d b4 26 00 00 00 00 	lea    0x0(%esi,%eiz,1),%esi
  100b58:	89 d5                	mov    %edx,%ebp
    arglen += strlen(argv[argc]) + 1;
  100b5a:	83 ec 0c             	sub    $0xc,%esp
  100b5d:	50                   	push   %eax
  100b5e:	e8 fd 33 00 00       	call   103f60 <strlen>
  for(argc=0; argv[argc]; argc++)
  100b63:	8d 55 01             	lea    0x1(%ebp),%edx
    arglen += strlen(argv[argc]) + 1;
  100b66:	8d 7c 38 01          	lea    0x1(%eax,%edi,1),%edi
  for(argc=0; argv[argc]; argc++)
  100b6a:	83 c4 10             	add    $0x10,%esp
  100b6d:	8b 04 96             	mov    (%esi,%edx,4),%eax
  100b70:	85 c0                	test   %eax,%eax
  100b72:	75 e4                	jne    100b58 <exec+0xf8>
  100b74:	83 c7 03             	add    $0x3,%edi
  100b77:	8d 04 ad 08 00 00 00 	lea    0x8(,%ebp,4),%eax
  100b7e:	8b 74 24 08          	mov    0x8(%esp),%esi
  100b82:	83 e7 fc             	and    $0xfffffffc,%edi
  100b85:	89 54 24 18          	mov    %edx,0x18(%esp)
  100b89:	89 54 24 1c          	mov    %edx,0x1c(%esp)
  100b8d:	89 7c 24 10          	mov    %edi,0x10(%esp)
  100b91:	89 44 24 14          	mov    %eax,0x14(%esp)

  // Stack.
  sz += PAGE;
  
  // Allocate program memory.
  sz = (sz+PAGE-1) & ~(PAGE-1);
  100b95:	8b 44 24 10          	mov    0x10(%esp),%eax
  100b99:	03 44 24 14          	add    0x14(%esp),%eax
  mem = kalloc(sz);
  100b9d:	83 ec 0c             	sub    $0xc,%esp
  sz = (sz+PAGE-1) & ~(PAGE-1);
  100ba0:	01 c6                	add    %eax,%esi
  100ba2:	81 e6 00 f0 ff ff    	and    $0xfffff000,%esi
  100ba8:	89 74 24 18          	mov    %esi,0x18(%esp)
  mem = kalloc(sz);
  100bac:	56                   	push   %esi
  100bad:	e8 ce 18 00 00       	call   102480 <kalloc>
  100bb2:	89 44 24 18          	mov    %eax,0x18(%esp)
  if(mem == 0)
  100bb6:	83 c4 10             	add    $0x10,%esp
  100bb9:	85 c0                	test   %eax,%eax
  100bbb:	0f 84 2a 02 00 00    	je     100deb <exec+0x38b>
    goto bad;
  memset(mem, 0, sz);
  100bc1:	83 ec 04             	sub    $0x4,%esp
  100bc4:	56                   	push   %esi
  100bc5:	6a 00                	push   $0x0
  100bc7:	50                   	push   %eax
  100bc8:	e8 b3 31 00 00       	call   103d80 <memset>

  // Load program into memory.
  for(i=0, off=elf.phoff; i<elf.phnum; i++, off+=sizeof(ph)){
  100bcd:	8b 7c 24 78          	mov    0x78(%esp),%edi
  100bd1:	83 c4 10             	add    $0x10,%esp
  100bd4:	66 83 7c 24 78 00    	cmpw   $0x0,0x78(%esp)
  100bda:	0f 84 b5 00 00 00    	je     100c95 <exec+0x235>
  100be0:	31 ed                	xor    %ebp,%ebp
  100be2:	8d 74 24 2c          	lea    0x2c(%esp),%esi
  100be6:	eb 1b                	jmp    100c03 <exec+0x1a3>
  100be8:	90                   	nop
  100be9:	8d b4 26 00 00 00 00 	lea    0x0(%esi,%eiz,1),%esi
  100bf0:	0f b7 44 24 78       	movzwl 0x78(%esp),%eax
  100bf5:	83 c5 01             	add    $0x1,%ebp
  100bf8:	83 c7 20             	add    $0x20,%edi
  100bfb:	39 e8                	cmp    %ebp,%eax
  100bfd:	0f 8e 92 00 00 00    	jle    100c95 <exec+0x235>
    if(readi(ip, (char*)&ph, off, sizeof(ph)) != sizeof(ph))
  100c03:	6a 20                	push   $0x20
  100c05:	57                   	push   %edi
  100c06:	56                   	push   %esi
  100c07:	53                   	push   %ebx
  100c08:	e8 23 0d 00 00       	call   101930 <readi>
  100c0d:	83 c4 10             	add    $0x10,%esp
  100c10:	83 f8 20             	cmp    $0x20,%eax
  100c13:	0f 85 bf 01 00 00    	jne    100dd8 <exec+0x378>
      goto bad;
    if(ph.type != ELF_PROG_LOAD)
  100c19:	83 7c 24 2c 01       	cmpl   $0x1,0x2c(%esp)
  100c1e:	75 d0                	jne    100bf0 <exec+0x190>
      continue;
    if(ph.va + ph.memsz < ph.va || ph.va + ph.memsz > sz)
  100c20:	8b 44 24 34          	mov    0x34(%esp),%eax
  100c24:	8b 54 24 40          	mov    0x40(%esp),%edx
  100c28:	89 c1                	mov    %eax,%ecx
  100c2a:	01 d1                	add    %edx,%ecx
  100c2c:	0f 82 a6 01 00 00    	jb     100dd8 <exec+0x378>
  100c32:	39 4c 24 0c          	cmp    %ecx,0xc(%esp)
  100c36:	0f 82 9c 01 00 00    	jb     100dd8 <exec+0x378>
      goto bad;
    if(ph.memsz < ph.filesz)
  100c3c:	8b 4c 24 3c          	mov    0x3c(%esp),%ecx
  100c40:	39 ca                	cmp    %ecx,%edx
  100c42:	0f 82 90 01 00 00    	jb     100dd8 <exec+0x378>
      goto bad;
    if(readi(ip, mem + ph.va, ph.offset, ph.filesz) != ph.filesz)
  100c48:	51                   	push   %ecx
  100c49:	ff 74 24 34          	pushl  0x34(%esp)
  100c4d:	03 44 24 10          	add    0x10(%esp),%eax
  100c51:	50                   	push   %eax
  100c52:	53                   	push   %ebx
  100c53:	e8 d8 0c 00 00       	call   101930 <readi>
  100c58:	83 c4 10             	add    $0x10,%esp
  100c5b:	3b 44 24 3c          	cmp    0x3c(%esp),%eax
  100c5f:	0f 85 73 01 00 00    	jne    100dd8 <exec+0x378>
      goto bad;
    memset(mem + ph.va + ph.filesz, 0, ph.memsz - ph.filesz);
  100c65:	83 ec 04             	sub    $0x4,%esp
  for(i=0, off=elf.phoff; i<elf.phnum; i++, off+=sizeof(ph)){
  100c68:	83 c5 01             	add    $0x1,%ebp
  100c6b:	83 c7 20             	add    $0x20,%edi
    memset(mem + ph.va + ph.filesz, 0, ph.memsz - ph.filesz);
  100c6e:	8b 4c 24 44          	mov    0x44(%esp),%ecx
  100c72:	29 c1                	sub    %eax,%ecx
  100c74:	51                   	push   %ecx
  100c75:	6a 00                	push   $0x0
  100c77:	03 44 24 40          	add    0x40(%esp),%eax
  100c7b:	03 44 24 14          	add    0x14(%esp),%eax
  100c7f:	50                   	push   %eax
  100c80:	e8 fb 30 00 00       	call   103d80 <memset>
  100c85:	83 c4 10             	add    $0x10,%esp
  for(i=0, off=elf.phoff; i<elf.phnum; i++, off+=sizeof(ph)){
  100c88:	0f b7 44 24 78       	movzwl 0x78(%esp),%eax
  100c8d:	39 e8                	cmp    %ebp,%eax
  100c8f:	0f 8f 6e ff ff ff    	jg     100c03 <exec+0x1a3>
  }
  iunlockput(ip);
  100c95:	83 ec 0c             	sub    $0xc,%esp
  100c98:	53                   	push   %ebx
  100c99:	e8 42 0c 00 00       	call   1018e0 <iunlockput>
  
  // Initialize stack.
  sp = sz;
  argp = sz - arglen - 4*(argc+1);
  100c9e:	8b 5c 24 1c          	mov    0x1c(%esp),%ebx

  // Copy argv strings and pointers to stack.
  *(uint*)(mem+argp + 4*argc) = 0;  // argv[argc]
  100ca2:	8b 4c 24 28          	mov    0x28(%esp),%ecx
  100ca6:	8b 54 24 18          	mov    0x18(%esp),%edx
  argp = sz - arglen - 4*(argc+1);
  100caa:	89 df                	mov    %ebx,%edi
  100cac:	2b 7c 24 20          	sub    0x20(%esp),%edi
  for(i=argc-1; i>=0; i--){
  100cb0:	8d 69 ff             	lea    -0x1(%ecx),%ebp
  argp = sz - arglen - 4*(argc+1);
  100cb3:	2b 7c 24 24          	sub    0x24(%esp),%edi
  *(uint*)(mem+argp + 4*argc) = 0;  // argv[argc]
  100cb7:	8d 04 8a             	lea    (%edx,%ecx,4),%eax
  for(i=argc-1; i>=0; i--){
  100cba:	83 c4 10             	add    $0x10,%esp
  100cbd:	83 fd ff             	cmp    $0xffffffff,%ebp
  *(uint*)(mem+argp + 4*argc) = 0;  // argv[argc]
  100cc0:	c7 04 38 00 00 00 00 	movl   $0x0,(%eax,%edi,1)
  100cc7:	8d 34 3a             	lea    (%edx,%edi,1),%esi
  for(i=argc-1; i>=0; i--){
  100cca:	74 4a                	je     100d16 <exec+0x2b6>
  100ccc:	89 7c 24 10          	mov    %edi,0x10(%esp)
  100cd0:	8b bc 24 a4 00 00 00 	mov    0xa4(%esp),%edi
  100cd7:	89 f0                	mov    %esi,%eax
  100cd9:	89 ee                	mov    %ebp,%esi
  100cdb:	89 c5                	mov    %eax,%ebp
  100cdd:	8d 76 00             	lea    0x0(%esi),%esi
    len = strlen(argv[i]) + 1;
  100ce0:	83 ec 0c             	sub    $0xc,%esp
  100ce3:	ff 34 b7             	pushl  (%edi,%esi,4)
  100ce6:	e8 75 32 00 00       	call   103f60 <strlen>
    sp -= len;
    memmove(mem+sp, argv[i], len);
  100ceb:	83 c4 0c             	add    $0xc,%esp
    len = strlen(argv[i]) + 1;
  100cee:	83 c0 01             	add    $0x1,%eax
    memmove(mem+sp, argv[i], len);
  100cf1:	50                   	push   %eax
    sp -= len;
  100cf2:	29 c3                	sub    %eax,%ebx
    memmove(mem+sp, argv[i], len);
  100cf4:	ff 34 b7             	pushl  (%edi,%esi,4)
  100cf7:	8b 44 24 14          	mov    0x14(%esp),%eax
  100cfb:	01 d8                	add    %ebx,%eax
  100cfd:	50                   	push   %eax
  100cfe:	e8 fd 30 00 00       	call   103e00 <memmove>
    *(uint*)(mem+argp + 4*i) = sp;  // argv[i]
  100d03:	89 5c b5 00          	mov    %ebx,0x0(%ebp,%esi,4)
  for(i=argc-1; i>=0; i--){
  100d07:	83 ee 01             	sub    $0x1,%esi
  100d0a:	83 c4 10             	add    $0x10,%esp
  100d0d:	83 fe ff             	cmp    $0xffffffff,%esi
  100d10:	75 ce                	jne    100ce0 <exec+0x280>
  100d12:	8b 7c 24 10          	mov    0x10(%esp),%edi
  }

  // Stack frame for main(argc, argv), below arguments.
  sp = argp;
  sp -= 4;
  *(uint*)(mem+sp) = argp;
  100d16:	8b 44 24 08          	mov    0x8(%esp),%eax
  sp -= 4;
  *(uint*)(mem+sp) = argc;
  100d1a:	8b 54 24 1c          	mov    0x1c(%esp),%edx
  sp -= 4;
  100d1e:	8d 5f f4             	lea    -0xc(%edi),%ebx
  100d21:	8b 8c 24 a0 00 00 00 	mov    0xa0(%esp),%ecx
  *(uint*)(mem+sp) = argp;
  100d28:	89 7c 38 fc          	mov    %edi,-0x4(%eax,%edi,1)
  *(uint*)(mem+sp) = argc;
  100d2c:	89 54 38 f8          	mov    %edx,-0x8(%eax,%edi,1)
  *(uint*)(mem+sp) = 0xffffffff;   // fake return pc
  100d30:	c7 44 38 f4 ff ff ff 	movl   $0xffffffff,-0xc(%eax,%edi,1)
  100d37:	ff 

  // Save program name for debugging.
  for(last=s=path; *s; s++)
  100d38:	8b 84 24 a0 00 00 00 	mov    0xa0(%esp),%eax
  100d3f:	0f b6 10             	movzbl (%eax),%edx
  100d42:	83 c0 01             	add    $0x1,%eax
  100d45:	84 d2                	test   %dl,%dl
  100d47:	74 1e                	je     100d67 <exec+0x307>
  100d49:	8d b4 26 00 00 00 00 	lea    0x0(%esi,%eiz,1),%esi
    if(*s == '/')
      last = s+1;
  100d50:	80 fa 2f             	cmp    $0x2f,%dl
  for(last=s=path; *s; s++)
  100d53:	0f b6 10             	movzbl (%eax),%edx
      last = s+1;
  100d56:	0f 44 c8             	cmove  %eax,%ecx
  100d59:	83 c0 01             	add    $0x1,%eax
  for(last=s=path; *s; s++)
  100d5c:	84 d2                	test   %dl,%dl
  100d5e:	75 f0                	jne    100d50 <exec+0x2f0>
  100d60:	89 8c 24 a0 00 00 00 	mov    %ecx,0xa0(%esp)
  safestrcpy(proc->name, last, sizeof(proc->name));
  100d67:	65 a1 04 00 00 00    	mov    %gs:0x4,%eax
  100d6d:	83 ec 04             	sub    $0x4,%esp
  100d70:	6a 10                	push   $0x10
  100d72:	ff b4 24 a8 00 00 00 	pushl  0xa8(%esp)
  100d79:	83 c0 6c             	add    $0x6c,%eax
  100d7c:	50                   	push   %eax
  100d7d:	e8 9e 31 00 00       	call   103f20 <safestrcpy>

  // Commit to the new image.
  kfree(proc->mem, proc->sz);
  100d82:	65 a1 04 00 00 00    	mov    %gs:0x4,%eax
  100d88:	5a                   	pop    %edx
  100d89:	59                   	pop    %ecx
  100d8a:	ff 70 04             	pushl  0x4(%eax)
  100d8d:	ff 30                	pushl  (%eax)
  100d8f:	e8 9c 15 00 00       	call   102330 <kfree>
  proc->mem = mem;
  100d94:	8b 54 24 18          	mov    0x18(%esp),%edx
  100d98:	65 a1 04 00 00 00    	mov    %gs:0x4,%eax
  100d9e:	89 10                	mov    %edx,(%eax)
  proc->sz = sz;
  100da0:	8b 54 24 1c          	mov    0x1c(%esp),%edx
  100da4:	65 a1 04 00 00 00    	mov    %gs:0x4,%eax
  100daa:	89 50 04             	mov    %edx,0x4(%eax)
  proc->tf->eip = elf.entry;  // main
  100dad:	8b 50 18             	mov    0x18(%eax),%edx
  100db0:	8b 4c 24 74          	mov    0x74(%esp),%ecx
  100db4:	89 4a 38             	mov    %ecx,0x38(%edx)
  proc->tf->esp = sp;
  100db7:	8b 40 18             	mov    0x18(%eax),%eax
  100dba:	89 58 44             	mov    %ebx,0x44(%eax)
  usegment();
  100dbd:	e8 fe 24 00 00       	call   1032c0 <usegment>
  return 0;
  100dc2:	83 c4 10             	add    $0x10,%esp
  100dc5:	31 c0                	xor    %eax,%eax
 bad:
  if(mem)
    kfree(mem, sz);
  iunlockput(ip);
  return -1;
}
  100dc7:	81 c4 8c 00 00 00    	add    $0x8c,%esp
  100dcd:	5b                   	pop    %ebx
  100dce:	5e                   	pop    %esi
  100dcf:	5f                   	pop    %edi
  100dd0:	5d                   	pop    %ebp
  100dd1:	c3                   	ret    
  100dd2:	8d b6 00 00 00 00    	lea    0x0(%esi),%esi
    kfree(mem, sz);
  100dd8:	83 ec 08             	sub    $0x8,%esp
  100ddb:	ff 74 24 14          	pushl  0x14(%esp)
  100ddf:	ff 74 24 14          	pushl  0x14(%esp)
  100de3:	e8 48 15 00 00       	call   102330 <kfree>
  100de8:	83 c4 10             	add    $0x10,%esp
  iunlockput(ip);
  100deb:	83 ec 0c             	sub    $0xc,%esp
  100dee:	53                   	push   %ebx
  100def:	e8 ec 0a 00 00       	call   1018e0 <iunlockput>
  return -1;
  100df4:	83 c4 10             	add    $0x10,%esp
  100df7:	b8 ff ff ff ff       	mov    $0xffffffff,%eax
}
  100dfc:	81 c4 8c 00 00 00    	add    $0x8c,%esp
  100e02:	5b                   	pop    %ebx
  100e03:	5e                   	pop    %esi
  100e04:	5f                   	pop    %edi
  100e05:	5d                   	pop    %ebp
  100e06:	c3                   	ret    
  for(argc=0; argv[argc]; argc++)
  100e07:	c7 44 24 14 04 00 00 	movl   $0x4,0x14(%esp)
  100e0e:	00 
  100e0f:	c7 44 24 10 00 00 00 	movl   $0x0,0x10(%esp)
  100e16:	00 
  100e17:	c7 44 24 1c 00 00 00 	movl   $0x0,0x1c(%esp)
  100e1e:	00 
  100e1f:	c7 44 24 18 00 00 00 	movl   $0x0,0x18(%esp)
  100e26:	00 
  100e27:	e9 69 fd ff ff       	jmp    100b95 <exec+0x135>
  for(i=0, off=elf.phoff; i<elf.phnum; i++, off+=sizeof(ph)){
  100e2c:	be 07 20 00 00       	mov    $0x2007,%esi
  100e31:	e9 f9 fc ff ff       	jmp    100b2f <exec+0xcf>
    return -1;
  100e36:	b8 ff ff ff ff       	mov    $0xffffffff,%eax
  100e3b:	eb bf                	jmp    100dfc <exec+0x39c>
  100e3d:	66 90                	xchg   %ax,%ax
  100e3f:	90                   	nop

00100e40 <fileinit>:
  struct file file[NFILE];
} ftable;

void
fileinit(void)
{
  100e40:	83 ec 14             	sub    $0x14,%esp
  initlock(&ftable.lock, "ftable");
  100e43:	68 e1 5d 10 00       	push   $0x105de1
  100e48:	68 60 c0 10 00       	push   $0x10c060
  100e4d:	e8 1e 2d 00 00       	call   103b70 <initlock>
}
  100e52:	83 c4 1c             	add    $0x1c,%esp
  100e55:	c3                   	ret    
  100e56:	8d 76 00             	lea    0x0(%esi),%esi
  100e59:	8d bc 27 00 00 00 00 	lea    0x0(%edi,%eiz,1),%edi

00100e60 <filealloc>:

// Allocate a file structure.
struct file*
filealloc(void)
{
  100e60:	53                   	push   %ebx
  struct file *f;

  acquire(&ftable.lock);
  for(f = ftable.file; f < ftable.file + NFILE; f++){
  100e61:	bb 94 c0 10 00       	mov    $0x10c094,%ebx
{
  100e66:	83 ec 14             	sub    $0x14,%esp
  acquire(&ftable.lock);
  100e69:	68 60 c0 10 00       	push   $0x10c060
  100e6e:	e8 1d 2d 00 00       	call   103b90 <acquire>
  100e73:	83 c4 10             	add    $0x10,%esp
  100e76:	eb 13                	jmp    100e8b <filealloc+0x2b>
  100e78:	90                   	nop
  100e79:	8d b4 26 00 00 00 00 	lea    0x0(%esi,%eiz,1),%esi
  for(f = ftable.file; f < ftable.file + NFILE; f++){
  100e80:	83 c3 18             	add    $0x18,%ebx
  100e83:	81 fb f4 c9 10 00    	cmp    $0x10c9f4,%ebx
  100e89:	73 25                	jae    100eb0 <filealloc+0x50>
    if(f->ref == 0){
  100e8b:	8b 43 04             	mov    0x4(%ebx),%eax
  100e8e:	85 c0                	test   %eax,%eax
  100e90:	75 ee                	jne    100e80 <filealloc+0x20>
      f->ref = 1;
      release(&ftable.lock);
  100e92:	83 ec 0c             	sub    $0xc,%esp
      f->ref = 1;
  100e95:	c7 43 04 01 00 00 00 	movl   $0x1,0x4(%ebx)
      release(&ftable.lock);
  100e9c:	68 60 c0 10 00       	push   $0x10c060
  100ea1:	e8 8a 2e 00 00       	call   103d30 <release>
      return f;
  100ea6:	83 c4 10             	add    $0x10,%esp
    }
  }
  release(&ftable.lock);
  return 0;
}
  100ea9:	89 d8                	mov    %ebx,%eax
  100eab:	83 c4 08             	add    $0x8,%esp
  100eae:	5b                   	pop    %ebx
  100eaf:	c3                   	ret    
  release(&ftable.lock);
  100eb0:	83 ec 0c             	sub    $0xc,%esp
  return 0;
  100eb3:	31 db                	xor    %ebx,%ebx
  release(&ftable.lock);
  100eb5:	68 60 c0 10 00       	push   $0x10c060
  100eba:	e8 71 2e 00 00       	call   103d30 <release>
  return 0;
  100ebf:	83 c4 10             	add    $0x10,%esp
}
  100ec2:	89 d8                	mov    %ebx,%eax
  100ec4:	83 c4 08             	add    $0x8,%esp
  100ec7:	5b                   	pop    %ebx
  100ec8:	c3                   	ret    
  100ec9:	8d b4 26 00 00 00 00 	lea    0x0(%esi,%eiz,1),%esi

00100ed0 <filedup>:

// Increment ref count for file f.
struct file*
filedup(struct file *f)
{
  100ed0:	53                   	push   %ebx
  100ed1:	83 ec 14             	sub    $0x14,%esp
  100ed4:	8b 5c 24 1c          	mov    0x1c(%esp),%ebx
  acquire(&ftable.lock);
  100ed8:	68 60 c0 10 00       	push   $0x10c060
  100edd:	e8 ae 2c 00 00       	call   103b90 <acquire>
  if(f->ref < 1)
  100ee2:	8b 43 04             	mov    0x4(%ebx),%eax
  100ee5:	83 c4 10             	add    $0x10,%esp
  100ee8:	85 c0                	test   %eax,%eax
  100eea:	7e 1a                	jle    100f06 <filedup+0x36>
    panic("filedup");
  f->ref++;
  100eec:	83 c0 01             	add    $0x1,%eax
  release(&ftable.lock);
  100eef:	83 ec 0c             	sub    $0xc,%esp
  f->ref++;
  100ef2:	89 43 04             	mov    %eax,0x4(%ebx)
  release(&ftable.lock);
  100ef5:	68 60 c0 10 00       	push   $0x10c060
  100efa:	e8 31 2e 00 00       	call   103d30 <release>
  return f;
}
  100eff:	83 c4 18             	add    $0x18,%esp
  100f02:	89 d8                	mov    %ebx,%eax
  100f04:	5b                   	pop    %ebx
  100f05:	c3                   	ret    
    panic("filedup");
  100f06:	83 ec 0c             	sub    $0xc,%esp
  100f09:	68 e8 5d 10 00       	push   $0x105de8
  100f0e:	e8 fd f8 ff ff       	call   100810 <panic>
  100f13:	8d b6 00 00 00 00    	lea    0x0(%esi),%esi
  100f19:	8d bc 27 00 00 00 00 	lea    0x0(%edi,%eiz,1),%edi

00100f20 <fileclose>:

// Close file f.  (Decrement ref count, close when reaches 0.)
void
fileclose(struct file *f)
{
  100f20:	55                   	push   %ebp
  100f21:	57                   	push   %edi
  100f22:	56                   	push   %esi
  100f23:	53                   	push   %ebx
  100f24:	83 ec 28             	sub    $0x28,%esp
  100f27:	8b 5c 24 3c          	mov    0x3c(%esp),%ebx
  struct file ff;

  acquire(&ftable.lock);
  100f2b:	68 60 c0 10 00       	push   $0x10c060
  100f30:	e8 5b 2c 00 00       	call   103b90 <acquire>
  if(f->ref < 1)
  100f35:	8b 43 04             	mov    0x4(%ebx),%eax
  100f38:	83 c4 10             	add    $0x10,%esp
  100f3b:	85 c0                	test   %eax,%eax
  100f3d:	0f 8e 85 00 00 00    	jle    100fc8 <fileclose+0xa8>
    panic("fileclose");
  if(--f->ref > 0){
  100f43:	83 e8 01             	sub    $0x1,%eax
  100f46:	85 c0                	test   %eax,%eax
  100f48:	89 43 04             	mov    %eax,0x4(%ebx)
  100f4b:	74 1b                	je     100f68 <fileclose+0x48>
    release(&ftable.lock);
  100f4d:	c7 44 24 30 60 c0 10 	movl   $0x10c060,0x30(%esp)
  100f54:	00 
  
  if(ff.type == FD_PIPE)
    pipeclose(ff.pipe, ff.writable);
  else if(ff.type == FD_INODE)
    iput(ff.ip);
}
  100f55:	83 c4 1c             	add    $0x1c,%esp
  100f58:	5b                   	pop    %ebx
  100f59:	5e                   	pop    %esi
  100f5a:	5f                   	pop    %edi
  100f5b:	5d                   	pop    %ebp
    release(&ftable.lock);
  100f5c:	e9 cf 2d 00 00       	jmp    103d30 <release>
  100f61:	8d b4 26 00 00 00 00 	lea    0x0(%esi,%eiz,1),%esi
  ff = *f;
  100f68:	0f b6 43 09          	movzbl 0x9(%ebx),%eax
  100f6c:	8b 33                	mov    (%ebx),%esi
  release(&ftable.lock);
  100f6e:	83 ec 0c             	sub    $0xc,%esp
  ff = *f;
  100f71:	8b 7b 0c             	mov    0xc(%ebx),%edi
  100f74:	8b 6b 10             	mov    0x10(%ebx),%ebp
  f->type = FD_NONE;
  100f77:	c7 03 00 00 00 00    	movl   $0x0,(%ebx)
  ff = *f;
  100f7d:	88 44 24 1b          	mov    %al,0x1b(%esp)
  release(&ftable.lock);
  100f81:	68 60 c0 10 00       	push   $0x10c060
  100f86:	e8 a5 2d 00 00       	call   103d30 <release>
  if(ff.type == FD_PIPE)
  100f8b:	83 c4 10             	add    $0x10,%esp
  100f8e:	83 fe 01             	cmp    $0x1,%esi
  100f91:	74 0d                	je     100fa0 <fileclose+0x80>
  else if(ff.type == FD_INODE)
  100f93:	83 fe 02             	cmp    $0x2,%esi
  100f96:	74 20                	je     100fb8 <fileclose+0x98>
}
  100f98:	83 c4 1c             	add    $0x1c,%esp
  100f9b:	5b                   	pop    %ebx
  100f9c:	5e                   	pop    %esi
  100f9d:	5f                   	pop    %edi
  100f9e:	5d                   	pop    %ebp
  100f9f:	c3                   	ret    
    pipeclose(ff.pipe, ff.writable);
  100fa0:	83 ec 08             	sub    $0x8,%esp
  100fa3:	0f be 74 24 17       	movsbl 0x17(%esp),%esi
  100fa8:	56                   	push   %esi
  100fa9:	57                   	push   %edi
  100faa:	e8 91 1d 00 00       	call   102d40 <pipeclose>
  100faf:	83 c4 10             	add    $0x10,%esp
  100fb2:	eb e4                	jmp    100f98 <fileclose+0x78>
  100fb4:	8d 74 26 00          	lea    0x0(%esi,%eiz,1),%esi
    iput(ff.ip);
  100fb8:	89 6c 24 30          	mov    %ebp,0x30(%esp)
}
  100fbc:	83 c4 1c             	add    $0x1c,%esp
  100fbf:	5b                   	pop    %ebx
  100fc0:	5e                   	pop    %esi
  100fc1:	5f                   	pop    %edi
  100fc2:	5d                   	pop    %ebp
    iput(ff.ip);
  100fc3:	e9 b8 07 00 00       	jmp    101780 <iput>
    panic("fileclose");
  100fc8:	83 ec 0c             	sub    $0xc,%esp
  100fcb:	68 f0 5d 10 00       	push   $0x105df0
  100fd0:	e8 3b f8 ff ff       	call   100810 <panic>
  100fd5:	8d 74 26 00          	lea    0x0(%esi,%eiz,1),%esi
  100fd9:	8d bc 27 00 00 00 00 	lea    0x0(%edi,%eiz,1),%edi

00100fe0 <filestat>:

// Get metadata about file f.
int
filestat(struct file *f, struct stat_new *st)
{
  100fe0:	53                   	push   %ebx
  100fe1:	83 ec 08             	sub    $0x8,%esp
  100fe4:	8b 5c 24 10          	mov    0x10(%esp),%ebx
  if(f->type == FD_INODE){
  100fe8:	83 3b 02             	cmpl   $0x2,(%ebx)
  100feb:	75 33                	jne    101020 <filestat+0x40>
    ilock(f->ip);
  100fed:	83 ec 0c             	sub    $0xc,%esp
  100ff0:	ff 73 10             	pushl  0x10(%ebx)
  100ff3:	e8 28 06 00 00       	call   101620 <ilock>
    stati(f->ip, st);
  100ff8:	58                   	pop    %eax
  100ff9:	5a                   	pop    %edx
  100ffa:	ff 74 24 1c          	pushl  0x1c(%esp)
  100ffe:	ff 73 10             	pushl  0x10(%ebx)
  101001:	e8 fa 08 00 00       	call   101900 <stati>
    iunlock(f->ip);
  101006:	59                   	pop    %ecx
  101007:	ff 73 10             	pushl  0x10(%ebx)
  10100a:	e8 21 07 00 00       	call   101730 <iunlock>
    return 0;
  10100f:	83 c4 10             	add    $0x10,%esp
  101012:	31 c0                	xor    %eax,%eax
  }
  return -1;
}
  101014:	83 c4 08             	add    $0x8,%esp
  101017:	5b                   	pop    %ebx
  101018:	c3                   	ret    
  101019:	8d b4 26 00 00 00 00 	lea    0x0(%esi,%eiz,1),%esi
  101020:	83 c4 08             	add    $0x8,%esp
  return -1;
  101023:	b8 ff ff ff ff       	mov    $0xffffffff,%eax
}
  101028:	5b                   	pop    %ebx
  101029:	c3                   	ret    
  10102a:	8d b6 00 00 00 00    	lea    0x0(%esi),%esi

00101030 <fileread>:

// Read from file f.  Addr is kernel address.
int
fileread(struct file *f, char *addr, int n)
{
  101030:	57                   	push   %edi
  101031:	56                   	push   %esi
  101032:	53                   	push   %ebx
  101033:	8b 5c 24 10          	mov    0x10(%esp),%ebx
  101037:	8b 74 24 14          	mov    0x14(%esp),%esi
  10103b:	8b 7c 24 18          	mov    0x18(%esp),%edi
  int r;

  if(f->readable == 0)
  10103f:	80 7b 08 00          	cmpb   $0x0,0x8(%ebx)
  101043:	74 5b                	je     1010a0 <fileread+0x70>
    return -1;
  if(f->type == FD_PIPE)
  101045:	8b 03                	mov    (%ebx),%eax
  101047:	83 f8 01             	cmp    $0x1,%eax
  10104a:	74 44                	je     101090 <fileread+0x60>
    return piperead(f->pipe, addr, n);
  if(f->type == FD_INODE){
  10104c:	83 f8 02             	cmp    $0x2,%eax
  10104f:	75 56                	jne    1010a7 <fileread+0x77>
    ilock(f->ip);
  101051:	83 ec 0c             	sub    $0xc,%esp
  101054:	ff 73 10             	pushl  0x10(%ebx)
  101057:	e8 c4 05 00 00       	call   101620 <ilock>
    if((r = readi(f->ip, addr, f->off, n)) > 0)
  10105c:	57                   	push   %edi
  10105d:	ff 73 14             	pushl  0x14(%ebx)
  101060:	56                   	push   %esi
  101061:	ff 73 10             	pushl  0x10(%ebx)
  101064:	e8 c7 08 00 00       	call   101930 <readi>
  101069:	83 c4 20             	add    $0x20,%esp
  10106c:	85 c0                	test   %eax,%eax
  10106e:	89 c6                	mov    %eax,%esi
  101070:	7e 03                	jle    101075 <fileread+0x45>
      f->off += r;
  101072:	01 43 14             	add    %eax,0x14(%ebx)
    iunlock(f->ip);
  101075:	83 ec 0c             	sub    $0xc,%esp
  101078:	ff 73 10             	pushl  0x10(%ebx)
  10107b:	e8 b0 06 00 00       	call   101730 <iunlock>
    return r;
  101080:	83 c4 10             	add    $0x10,%esp
  }
  panic("fileread");
}
  101083:	89 f0                	mov    %esi,%eax
  101085:	5b                   	pop    %ebx
  101086:	5e                   	pop    %esi
  101087:	5f                   	pop    %edi
  101088:	c3                   	ret    
  101089:	8d b4 26 00 00 00 00 	lea    0x0(%esi,%eiz,1),%esi
    return piperead(f->pipe, addr, n);
  101090:	8b 43 0c             	mov    0xc(%ebx),%eax
  101093:	89 44 24 10          	mov    %eax,0x10(%esp)
}
  101097:	5b                   	pop    %ebx
  101098:	5e                   	pop    %esi
  101099:	5f                   	pop    %edi
    return piperead(f->pipe, addr, n);
  10109a:	e9 41 1e 00 00       	jmp    102ee0 <piperead>
  10109f:	90                   	nop
    return -1;
  1010a0:	be ff ff ff ff       	mov    $0xffffffff,%esi
  1010a5:	eb dc                	jmp    101083 <fileread+0x53>
  panic("fileread");
  1010a7:	83 ec 0c             	sub    $0xc,%esp
  1010aa:	68 fa 5d 10 00       	push   $0x105dfa
  1010af:	e8 5c f7 ff ff       	call   100810 <panic>
  1010b4:	8d b6 00 00 00 00    	lea    0x0(%esi),%esi
  1010ba:	8d bf 00 00 00 00    	lea    0x0(%edi),%edi

001010c0 <filewrite>:

// Write to file f.  Addr is kernel address.
int
filewrite(struct file *f, char *addr, int n)
{
  1010c0:	57                   	push   %edi
  1010c1:	56                   	push   %esi
  1010c2:	53                   	push   %ebx
  1010c3:	8b 5c 24 10          	mov    0x10(%esp),%ebx
  1010c7:	8b 74 24 14          	mov    0x14(%esp),%esi
  1010cb:	8b 7c 24 18          	mov    0x18(%esp),%edi
  int r;

  if(f->writable == 0)
  1010cf:	80 7b 09 00          	cmpb   $0x0,0x9(%ebx)
  1010d3:	74 5b                	je     101130 <filewrite+0x70>
    return -1;
  if(f->type == FD_PIPE)
  1010d5:	8b 03                	mov    (%ebx),%eax
  1010d7:	83 f8 01             	cmp    $0x1,%eax
  1010da:	74 44                	je     101120 <filewrite+0x60>
    return pipewrite(f->pipe, addr, n);
  if(f->type == FD_INODE){
  1010dc:	83 f8 02             	cmp    $0x2,%eax
  1010df:	75 56                	jne    101137 <filewrite+0x77>
    ilock(f->ip);
  1010e1:	83 ec 0c             	sub    $0xc,%esp
  1010e4:	ff 73 10             	pushl  0x10(%ebx)
  1010e7:	e8 34 05 00 00       	call   101620 <ilock>
    if((r = writei(f->ip, addr, f->off, n)) > 0)
  1010ec:	57                   	push   %edi
  1010ed:	ff 73 14             	pushl  0x14(%ebx)
  1010f0:	56                   	push   %esi
  1010f1:	ff 73 10             	pushl  0x10(%ebx)
  1010f4:	e8 37 09 00 00       	call   101a30 <writei>
  1010f9:	83 c4 20             	add    $0x20,%esp
  1010fc:	85 c0                	test   %eax,%eax
  1010fe:	89 c6                	mov    %eax,%esi
  101100:	7e 03                	jle    101105 <filewrite+0x45>
      f->off += r;
  101102:	01 43 14             	add    %eax,0x14(%ebx)
    iunlock(f->ip);
  101105:	83 ec 0c             	sub    $0xc,%esp
  101108:	ff 73 10             	pushl  0x10(%ebx)
  10110b:	e8 20 06 00 00       	call   101730 <iunlock>
    return r;
  101110:	83 c4 10             	add    $0x10,%esp
  }
  panic("filewrite");
}
  101113:	89 f0                	mov    %esi,%eax
  101115:	5b                   	pop    %ebx
  101116:	5e                   	pop    %esi
  101117:	5f                   	pop    %edi
  101118:	c3                   	ret    
  101119:	8d b4 26 00 00 00 00 	lea    0x0(%esi,%eiz,1),%esi
    return pipewrite(f->pipe, addr, n);
  101120:	8b 43 0c             	mov    0xc(%ebx),%eax
  101123:	89 44 24 10          	mov    %eax,0x10(%esp)
}
  101127:	5b                   	pop    %ebx
  101128:	5e                   	pop    %esi
  101129:	5f                   	pop    %edi
    return pipewrite(f->pipe, addr, n);
  10112a:	e9 b1 1c 00 00       	jmp    102de0 <pipewrite>
  10112f:	90                   	nop
    return -1;
  101130:	be ff ff ff ff       	mov    $0xffffffff,%esi
  101135:	eb dc                	jmp    101113 <filewrite+0x53>
  panic("filewrite");
  101137:	83 ec 0c             	sub    $0xc,%esp
  10113a:	68 03 5e 10 00       	push   $0x105e03
  10113f:	e8 cc f6 ff ff       	call   100810 <panic>
  101144:	66 90                	xchg   %ax,%ax
  101146:	66 90                	xchg   %ax,%ax
  101148:	66 90                	xchg   %ax,%ax
  10114a:	66 90                	xchg   %ax,%ax
  10114c:	66 90                	xchg   %ax,%ax
  10114e:	66 90                	xchg   %ax,%ax

00101150 <readsb>:
static void itrunc(struct inode*);

// Read the super block.
static void
readsb(int dev, struct superblock *sb)
{
  101150:	56                   	push   %esi
  101151:	53                   	push   %ebx
  101152:	89 d6                	mov    %edx,%esi
  101154:	83 ec 0c             	sub    $0xc,%esp
  struct buf *bp;
  
  bp = bread(dev, 1);
  101157:	6a 01                	push   $0x1
  101159:	50                   	push   %eax
  10115a:	e8 71 f0 ff ff       	call   1001d0 <bread>
  10115f:	89 c3                	mov    %eax,%ebx
  memmove(sb, bp->data, sizeof(*sb));
  101161:	8d 40 18             	lea    0x18(%eax),%eax
  101164:	83 c4 0c             	add    $0xc,%esp
  101167:	6a 0c                	push   $0xc
  101169:	50                   	push   %eax
  10116a:	56                   	push   %esi
  10116b:	e8 90 2c 00 00       	call   103e00 <memmove>
  brelse(bp);
  101170:	89 1c 24             	mov    %ebx,(%esp)
  101173:	e8 68 f1 ff ff       	call   1002e0 <brelse>
}
  101178:	83 c4 14             	add    $0x14,%esp
  10117b:	5b                   	pop    %ebx
  10117c:	5e                   	pop    %esi
  10117d:	c3                   	ret    
  10117e:	66 90                	xchg   %ax,%ax

00101180 <bfree>:
}

// Free a disk block.
static void
bfree(int dev, uint b)
{
  101180:	57                   	push   %edi
  101181:	56                   	push   %esi
  101182:	89 c6                	mov    %eax,%esi
  101184:	53                   	push   %ebx
  101185:	89 d3                	mov    %edx,%ebx
  101187:	83 ec 18             	sub    $0x18,%esp
  bp = bread(dev, bno);
  10118a:	52                   	push   %edx
  10118b:	50                   	push   %eax
  10118c:	e8 3f f0 ff ff       	call   1001d0 <bread>
  memset(bp->data, 0, BSIZE);
  101191:	83 c4 0c             	add    $0xc,%esp
  bp = bread(dev, bno);
  101194:	89 c7                	mov    %eax,%edi
  memset(bp->data, 0, BSIZE);
  101196:	83 c0 18             	add    $0x18,%eax
  101199:	68 00 02 00 00       	push   $0x200
  10119e:	6a 00                	push   $0x0
  1011a0:	50                   	push   %eax
  1011a1:	e8 da 2b 00 00       	call   103d80 <memset>
  bwrite(bp);
  1011a6:	89 3c 24             	mov    %edi,(%esp)
  1011a9:	e8 02 f1 ff ff       	call   1002b0 <bwrite>
  brelse(bp);
  1011ae:	89 3c 24             	mov    %edi,(%esp)
  1011b1:	e8 2a f1 ff ff       	call   1002e0 <brelse>
  struct superblock sb;
  int bi, m;

  bzero(dev, b);

  readsb(dev, &sb);
  1011b6:	8d 54 24 14          	lea    0x14(%esp),%edx
  1011ba:	89 f0                	mov    %esi,%eax
  1011bc:	e8 8f ff ff ff       	call   101150 <readsb>
  bp = bread(dev, BBLOCK(b, sb.ninodes));
  1011c1:	58                   	pop    %eax
  1011c2:	5a                   	pop    %edx
  1011c3:	8b 44 24 14          	mov    0x14(%esp),%eax
  1011c7:	89 da                	mov    %ebx,%edx
  1011c9:	c1 ea 0c             	shr    $0xc,%edx
  1011cc:	c1 e8 03             	shr    $0x3,%eax
  1011cf:	8d 44 10 03          	lea    0x3(%eax,%edx,1),%eax
  1011d3:	50                   	push   %eax
  1011d4:	56                   	push   %esi
  1011d5:	e8 f6 ef ff ff       	call   1001d0 <bread>
  bi = b % BPB;
  m = 1 << (bi % 8);
  1011da:	89 d9                	mov    %ebx,%ecx
  if((bp->data[bi/8] & m) == 0)
  1011dc:	c1 fb 03             	sar    $0x3,%ebx
  m = 1 << (bi % 8);
  1011df:	ba 01 00 00 00       	mov    $0x1,%edx
  1011e4:	83 e1 07             	and    $0x7,%ecx
  if((bp->data[bi/8] & m) == 0)
  1011e7:	81 e3 ff 01 00 00    	and    $0x1ff,%ebx
  1011ed:	83 c4 10             	add    $0x10,%esp
  m = 1 << (bi % 8);
  1011f0:	d3 e2                	shl    %cl,%edx
  if((bp->data[bi/8] & m) == 0)
  1011f2:	0f b6 4c 18 18       	movzbl 0x18(%eax,%ebx,1),%ecx
  1011f7:	85 d1                	test   %edx,%ecx
  1011f9:	74 22                	je     10121d <bfree+0x9d>
    panic("freeing free block");
  bp->data[bi/8] &= ~m;  // Mark block free on disk.
  1011fb:	f7 d2                	not    %edx
  1011fd:	89 c6                	mov    %eax,%esi
  bwrite(bp);
  1011ff:	83 ec 0c             	sub    $0xc,%esp
  bp->data[bi/8] &= ~m;  // Mark block free on disk.
  101202:	21 ca                	and    %ecx,%edx
  101204:	88 54 1e 18          	mov    %dl,0x18(%esi,%ebx,1)
  bwrite(bp);
  101208:	56                   	push   %esi
  101209:	e8 a2 f0 ff ff       	call   1002b0 <bwrite>
  brelse(bp);
  10120e:	89 34 24             	mov    %esi,(%esp)
  101211:	e8 ca f0 ff ff       	call   1002e0 <brelse>
}
  101216:	83 c4 20             	add    $0x20,%esp
  101219:	5b                   	pop    %ebx
  10121a:	5e                   	pop    %esi
  10121b:	5f                   	pop    %edi
  10121c:	c3                   	ret    
    panic("freeing free block");
  10121d:	83 ec 0c             	sub    $0xc,%esp
  101220:	68 0d 5e 10 00       	push   $0x105e0d
  101225:	e8 e6 f5 ff ff       	call   100810 <panic>
  10122a:	8d b6 00 00 00 00    	lea    0x0(%esi),%esi

00101230 <balloc>:
{
  101230:	55                   	push   %ebp
  101231:	57                   	push   %edi
  101232:	56                   	push   %esi
  101233:	53                   	push   %ebx
  101234:	83 ec 2c             	sub    $0x2c,%esp
  readsb(dev, &sb);
  101237:	8d 54 24 14          	lea    0x14(%esp),%edx
{
  10123b:	89 44 24 0c          	mov    %eax,0xc(%esp)
  readsb(dev, &sb);
  10123f:	e8 0c ff ff ff       	call   101150 <readsb>
  for(b = 0; b < sb.size; b += BPB){
  101244:	8b 44 24 14          	mov    0x14(%esp),%eax
  101248:	85 c0                	test   %eax,%eax
  10124a:	0f 84 aa 00 00 00    	je     1012fa <balloc+0xca>
  101250:	c7 44 24 08 00 00 00 	movl   $0x0,0x8(%esp)
  101257:	00 
      m = 1 << (bi % 8);
  101258:	bf 01 00 00 00       	mov    $0x1,%edi
    bp = bread(dev, BBLOCK(b, sb.ninodes));
  10125d:	83 ec 08             	sub    $0x8,%esp
    for(bi = 0; bi < BPB; bi++){
  101260:	31 db                	xor    %ebx,%ebx
    bp = bread(dev, BBLOCK(b, sb.ninodes));
  101262:	8b 44 24 24          	mov    0x24(%esp),%eax
  101266:	8b 54 24 10          	mov    0x10(%esp),%edx
  10126a:	c1 e8 03             	shr    $0x3,%eax
  10126d:	c1 fa 0c             	sar    $0xc,%edx
  101270:	8d 44 10 03          	lea    0x3(%eax,%edx,1),%eax
  101274:	50                   	push   %eax
  101275:	ff 74 24 18          	pushl  0x18(%esp)
  101279:	e8 52 ef ff ff       	call   1001d0 <bread>
  10127e:	83 c4 10             	add    $0x10,%esp
  101281:	eb 10                	jmp    101293 <balloc+0x63>
  101283:	90                   	nop
  101284:	8d 74 26 00          	lea    0x0(%esi,%eiz,1),%esi
    for(bi = 0; bi < BPB; bi++){
  101288:	83 c3 01             	add    $0x1,%ebx
  10128b:	81 fb 00 10 00 00    	cmp    $0x1000,%ebx
  101291:	74 45                	je     1012d8 <balloc+0xa8>
      m = 1 << (bi % 8);
  101293:	89 d9                	mov    %ebx,%ecx
  101295:	89 fe                	mov    %edi,%esi
  101297:	83 e1 07             	and    $0x7,%ecx
  10129a:	d3 e6                	shl    %cl,%esi
      if((bp->data[bi/8] & m) == 0){  // Is block free?
  10129c:	89 d9                	mov    %ebx,%ecx
  10129e:	c1 f9 03             	sar    $0x3,%ecx
  1012a1:	0f b6 6c 08 18       	movzbl 0x18(%eax,%ecx,1),%ebp
  1012a6:	85 f5                	test   %esi,%ebp
  1012a8:	89 ea                	mov    %ebp,%edx
  1012aa:	75 dc                	jne    101288 <balloc+0x58>
        bwrite(bp);
  1012ac:	83 ec 0c             	sub    $0xc,%esp
        bp->data[bi/8] |= m;  // Mark block in use on disk.
  1012af:	09 f2                	or     %esi,%edx
  1012b1:	89 c5                	mov    %eax,%ebp
  1012b3:	88 54 08 18          	mov    %dl,0x18(%eax,%ecx,1)
        bwrite(bp);
  1012b7:	50                   	push   %eax
  1012b8:	e8 f3 ef ff ff       	call   1002b0 <bwrite>
        brelse(bp);
  1012bd:	89 2c 24             	mov    %ebp,(%esp)
  1012c0:	e8 1b f0 ff ff       	call   1002e0 <brelse>
        return b + bi;
  1012c5:	8b 44 24 18          	mov    0x18(%esp),%eax
}
  1012c9:	83 c4 3c             	add    $0x3c,%esp
        return b + bi;
  1012cc:	01 d8                	add    %ebx,%eax
}
  1012ce:	5b                   	pop    %ebx
  1012cf:	5e                   	pop    %esi
  1012d0:	5f                   	pop    %edi
  1012d1:	5d                   	pop    %ebp
  1012d2:	c3                   	ret    
  1012d3:	90                   	nop
  1012d4:	8d 74 26 00          	lea    0x0(%esi,%eiz,1),%esi
    brelse(bp);
  1012d8:	83 ec 0c             	sub    $0xc,%esp
  1012db:	50                   	push   %eax
  1012dc:	e8 ff ef ff ff       	call   1002e0 <brelse>
  for(b = 0; b < sb.size; b += BPB){
  1012e1:	81 44 24 18 00 10 00 	addl   $0x1000,0x18(%esp)
  1012e8:	00 
  1012e9:	8b 44 24 18          	mov    0x18(%esp),%eax
  1012ed:	83 c4 10             	add    $0x10,%esp
  1012f0:	39 44 24 14          	cmp    %eax,0x14(%esp)
  1012f4:	0f 87 63 ff ff ff    	ja     10125d <balloc+0x2d>
  panic("balloc: out of blocks");
  1012fa:	83 ec 0c             	sub    $0xc,%esp
  1012fd:	68 20 5e 10 00       	push   $0x105e20
  101302:	e8 09 f5 ff ff       	call   100810 <panic>
  101307:	89 f6                	mov    %esi,%esi
  101309:	8d bc 27 00 00 00 00 	lea    0x0(%edi,%eiz,1),%edi

00101310 <iget>:

// Find the inode with number inum on device dev
// and return the in-memory copy.
static struct inode*
iget(uint dev, uint inum)
{
  101310:	55                   	push   %ebp
  101311:	57                   	push   %edi
  101312:	89 d5                	mov    %edx,%ebp
  101314:	56                   	push   %esi
  101315:	53                   	push   %ebx
  101316:	89 c7                	mov    %eax,%edi
  struct inode *ip, *empty;

  acquire(&icache.lock);

  // Try for cached inode.
  empty = 0;
  101318:	31 f6                	xor    %esi,%esi
  for(ip = &icache.inode[0]; ip < &icache.inode[NINODE]; ip++){
  10131a:	bb 94 ca 10 00       	mov    $0x10ca94,%ebx
{
  10131f:	83 ec 18             	sub    $0x18,%esp
  acquire(&icache.lock);
  101322:	68 60 ca 10 00       	push   $0x10ca60
  101327:	e8 64 28 00 00       	call   103b90 <acquire>
  10132c:	83 c4 10             	add    $0x10,%esp
  10132f:	eb 16                	jmp    101347 <iget+0x37>
  101331:	8d b4 26 00 00 00 00 	lea    0x0(%esi,%eiz,1),%esi
    if(ip->ref > 0 && ip->dev == dev && ip->inum == inum){
      ip->ref++;
      release(&icache.lock);
      return ip;
    }
    if(empty == 0 && ip->ref == 0)    // Remember empty slot.
  101338:	85 f6                	test   %esi,%esi
  10133a:	74 44                	je     101380 <iget+0x70>
  for(ip = &icache.inode[0]; ip < &icache.inode[NINODE]; ip++){
  10133c:	83 c3 50             	add    $0x50,%ebx
  10133f:	81 fb 34 da 10 00    	cmp    $0x10da34,%ebx
  101345:	73 49                	jae    101390 <iget+0x80>
    if(ip->ref > 0 && ip->dev == dev && ip->inum == inum){
  101347:	8b 4b 08             	mov    0x8(%ebx),%ecx
  10134a:	85 c9                	test   %ecx,%ecx
  10134c:	7e ea                	jle    101338 <iget+0x28>
  10134e:	39 3b                	cmp    %edi,(%ebx)
  101350:	75 e6                	jne    101338 <iget+0x28>
  101352:	39 6b 04             	cmp    %ebp,0x4(%ebx)
  101355:	75 e1                	jne    101338 <iget+0x28>
      release(&icache.lock);
  101357:	83 ec 0c             	sub    $0xc,%esp
      ip->ref++;
  10135a:	83 c1 01             	add    $0x1,%ecx
      return ip;
  10135d:	89 de                	mov    %ebx,%esi
      release(&icache.lock);
  10135f:	68 60 ca 10 00       	push   $0x10ca60
      ip->ref++;
  101364:	89 4b 08             	mov    %ecx,0x8(%ebx)
      release(&icache.lock);
  101367:	e8 c4 29 00 00       	call   103d30 <release>
      return ip;
  10136c:	83 c4 10             	add    $0x10,%esp
  ip->ref = 1;
  ip->flags = 0;
  release(&icache.lock);

  return ip;
}
  10136f:	89 f0                	mov    %esi,%eax
  101371:	83 c4 0c             	add    $0xc,%esp
  101374:	5b                   	pop    %ebx
  101375:	5e                   	pop    %esi
  101376:	5f                   	pop    %edi
  101377:	5d                   	pop    %ebp
  101378:	c3                   	ret    
  101379:	8d b4 26 00 00 00 00 	lea    0x0(%esi,%eiz,1),%esi
    if(empty == 0 && ip->ref == 0)    // Remember empty slot.
  101380:	85 c9                	test   %ecx,%ecx
  101382:	0f 44 f3             	cmove  %ebx,%esi
  for(ip = &icache.inode[0]; ip < &icache.inode[NINODE]; ip++){
  101385:	83 c3 50             	add    $0x50,%ebx
  101388:	81 fb 34 da 10 00    	cmp    $0x10da34,%ebx
  10138e:	72 b7                	jb     101347 <iget+0x37>
  if(empty == 0)
  101390:	85 f6                	test   %esi,%esi
  101392:	74 2d                	je     1013c1 <iget+0xb1>
  release(&icache.lock);
  101394:	83 ec 0c             	sub    $0xc,%esp
  ip->dev = dev;
  101397:	89 3e                	mov    %edi,(%esi)
  ip->inum = inum;
  101399:	89 6e 04             	mov    %ebp,0x4(%esi)
  ip->ref = 1;
  10139c:	c7 46 08 01 00 00 00 	movl   $0x1,0x8(%esi)
  ip->flags = 0;
  1013a3:	c7 46 0c 00 00 00 00 	movl   $0x0,0xc(%esi)
  release(&icache.lock);
  1013aa:	68 60 ca 10 00       	push   $0x10ca60
  1013af:	e8 7c 29 00 00       	call   103d30 <release>
  return ip;
  1013b4:	83 c4 10             	add    $0x10,%esp
}
  1013b7:	89 f0                	mov    %esi,%eax
  1013b9:	83 c4 0c             	add    $0xc,%esp
  1013bc:	5b                   	pop    %ebx
  1013bd:	5e                   	pop    %esi
  1013be:	5f                   	pop    %edi
  1013bf:	5d                   	pop    %ebp
  1013c0:	c3                   	ret    
    panic("iget: no inodes");
  1013c1:	83 ec 0c             	sub    $0xc,%esp
  1013c4:	68 36 5e 10 00       	push   $0x105e36
  1013c9:	e8 42 f4 ff ff       	call   100810 <panic>
  1013ce:	66 90                	xchg   %ax,%ax

001013d0 <bmap>:

// Return the disk block address of the nth block in inode ip.
// If there is no such block, bmap allocates one.
static uint
bmap(struct inode *ip, uint bn)
{
  1013d0:	55                   	push   %ebp
  1013d1:	57                   	push   %edi
  1013d2:	56                   	push   %esi
  1013d3:	53                   	push   %ebx
  1013d4:	89 c6                	mov    %eax,%esi
  1013d6:	83 ec 0c             	sub    $0xc,%esp
  uint addr, *a;
  struct buf *bp;

  if(bn < NDIRECT){
  1013d9:	83 fa 0b             	cmp    $0xb,%edx
  1013dc:	77 1a                	ja     1013f8 <bmap+0x28>
  1013de:	8d 3c 90             	lea    (%eax,%edx,4),%edi
    if((addr = ip->addrs[bn]) == 0)
  1013e1:	8b 5f 1c             	mov    0x1c(%edi),%ebx
  1013e4:	85 db                	test   %ebx,%ebx
  1013e6:	74 68                	je     101450 <bmap+0x80>
    brelse(bp);
    return addr;
  }

  panic("bmap: out of range");
}
  1013e8:	83 c4 0c             	add    $0xc,%esp
  1013eb:	89 d8                	mov    %ebx,%eax
  1013ed:	5b                   	pop    %ebx
  1013ee:	5e                   	pop    %esi
  1013ef:	5f                   	pop    %edi
  1013f0:	5d                   	pop    %ebp
  1013f1:	c3                   	ret    
  1013f2:	8d b6 00 00 00 00    	lea    0x0(%esi),%esi
  bn -= NDIRECT;
  1013f8:	8d 5a f4             	lea    -0xc(%edx),%ebx
  if(bn < NINDIRECT){
  1013fb:	83 fb 7f             	cmp    $0x7f,%ebx
  1013fe:	77 7c                	ja     10147c <bmap+0xac>
    if((addr = ip->addrs[NDIRECT]) == 0)
  101400:	8b 40 4c             	mov    0x4c(%eax),%eax
  101403:	85 c0                	test   %eax,%eax
  101405:	74 69                	je     101470 <bmap+0xa0>
    bp = bread(ip->dev, addr);
  101407:	83 ec 08             	sub    $0x8,%esp
  10140a:	50                   	push   %eax
  10140b:	ff 36                	pushl  (%esi)
  10140d:	e8 be ed ff ff       	call   1001d0 <bread>
    if((addr = a[bn]) == 0){
  101412:	8d 6c 98 18          	lea    0x18(%eax,%ebx,4),%ebp
  101416:	83 c4 10             	add    $0x10,%esp
    bp = bread(ip->dev, addr);
  101419:	89 c7                	mov    %eax,%edi
    if((addr = a[bn]) == 0){
  10141b:	8b 5d 00             	mov    0x0(%ebp),%ebx
  10141e:	85 db                	test   %ebx,%ebx
  101420:	75 18                	jne    10143a <bmap+0x6a>
      a[bn] = addr = balloc(ip->dev);
  101422:	8b 06                	mov    (%esi),%eax
  101424:	e8 07 fe ff ff       	call   101230 <balloc>
      bwrite(bp);
  101429:	83 ec 0c             	sub    $0xc,%esp
      a[bn] = addr = balloc(ip->dev);
  10142c:	89 45 00             	mov    %eax,0x0(%ebp)
  10142f:	89 c3                	mov    %eax,%ebx
      bwrite(bp);
  101431:	57                   	push   %edi
  101432:	e8 79 ee ff ff       	call   1002b0 <bwrite>
  101437:	83 c4 10             	add    $0x10,%esp
    brelse(bp);
  10143a:	83 ec 0c             	sub    $0xc,%esp
  10143d:	57                   	push   %edi
  10143e:	e8 9d ee ff ff       	call   1002e0 <brelse>
  101443:	83 c4 10             	add    $0x10,%esp
}
  101446:	89 d8                	mov    %ebx,%eax
  101448:	83 c4 0c             	add    $0xc,%esp
  10144b:	5b                   	pop    %ebx
  10144c:	5e                   	pop    %esi
  10144d:	5f                   	pop    %edi
  10144e:	5d                   	pop    %ebp
  10144f:	c3                   	ret    
      ip->addrs[bn] = addr = balloc(ip->dev);
  101450:	8b 00                	mov    (%eax),%eax
  101452:	e8 d9 fd ff ff       	call   101230 <balloc>
  101457:	89 47 1c             	mov    %eax,0x1c(%edi)
  10145a:	89 c3                	mov    %eax,%ebx
}
  10145c:	83 c4 0c             	add    $0xc,%esp
  10145f:	89 d8                	mov    %ebx,%eax
  101461:	5b                   	pop    %ebx
  101462:	5e                   	pop    %esi
  101463:	5f                   	pop    %edi
  101464:	5d                   	pop    %ebp
  101465:	c3                   	ret    
  101466:	8d 76 00             	lea    0x0(%esi),%esi
  101469:	8d bc 27 00 00 00 00 	lea    0x0(%edi,%eiz,1),%edi
      ip->addrs[NDIRECT] = addr = balloc(ip->dev);
  101470:	8b 06                	mov    (%esi),%eax
  101472:	e8 b9 fd ff ff       	call   101230 <balloc>
  101477:	89 46 4c             	mov    %eax,0x4c(%esi)
  10147a:	eb 8b                	jmp    101407 <bmap+0x37>
  panic("bmap: out of range");
  10147c:	83 ec 0c             	sub    $0xc,%esp
  10147f:	68 46 5e 10 00       	push   $0x105e46
  101484:	e8 87 f3 ff ff       	call   100810 <panic>
  101489:	8d b4 26 00 00 00 00 	lea    0x0(%esi,%eiz,1),%esi

00101490 <iinit>:
{
  101490:	83 ec 14             	sub    $0x14,%esp
  initlock(&icache.lock, "icache");
  101493:	68 59 5e 10 00       	push   $0x105e59
  101498:	68 60 ca 10 00       	push   $0x10ca60
  10149d:	e8 ce 26 00 00       	call   103b70 <initlock>
}
  1014a2:	83 c4 1c             	add    $0x1c,%esp
  1014a5:	c3                   	ret    
  1014a6:	8d 76 00             	lea    0x0(%esi),%esi
  1014a9:	8d bc 27 00 00 00 00 	lea    0x0(%edi,%eiz,1),%edi

001014b0 <ialloc>:
{
  1014b0:	55                   	push   %ebp
  1014b1:	57                   	push   %edi
  1014b2:	56                   	push   %esi
  1014b3:	53                   	push   %ebx
  1014b4:	83 ec 2c             	sub    $0x2c,%esp
  1014b7:	8b 74 24 40          	mov    0x40(%esp),%esi
  readsb(dev, &sb);
  1014bb:	8d 54 24 14          	lea    0x14(%esp),%edx
{
  1014bf:	8b 7c 24 44          	mov    0x44(%esp),%edi
  readsb(dev, &sb);
  1014c3:	89 f0                	mov    %esi,%eax
  1014c5:	e8 86 fc ff ff       	call   101150 <readsb>
  for(inum = 1; inum < sb.ninodes; inum++){  // loop over inode blocks
  1014ca:	83 7c 24 1c 01       	cmpl   $0x1,0x1c(%esp)
  1014cf:	0f 86 82 00 00 00    	jbe    101557 <ialloc+0xa7>
  1014d5:	bb 01 00 00 00       	mov    $0x1,%ebx
  1014da:	eb 19                	jmp    1014f5 <ialloc+0x45>
  1014dc:	8d 74 26 00          	lea    0x0(%esi,%eiz,1),%esi
    brelse(bp);
  1014e0:	83 ec 0c             	sub    $0xc,%esp
  for(inum = 1; inum < sb.ninodes; inum++){  // loop over inode blocks
  1014e3:	83 c3 01             	add    $0x1,%ebx
    brelse(bp);
  1014e6:	55                   	push   %ebp
  1014e7:	e8 f4 ed ff ff       	call   1002e0 <brelse>
  for(inum = 1; inum < sb.ninodes; inum++){  // loop over inode blocks
  1014ec:	83 c4 10             	add    $0x10,%esp
  1014ef:	39 5c 24 1c          	cmp    %ebx,0x1c(%esp)
  1014f3:	76 62                	jbe    101557 <ialloc+0xa7>
    bp = bread(dev, IBLOCK(inum));
  1014f5:	89 d8                	mov    %ebx,%eax
  1014f7:	83 ec 08             	sub    $0x8,%esp
  1014fa:	c1 e8 03             	shr    $0x3,%eax
  1014fd:	83 c0 02             	add    $0x2,%eax
  101500:	50                   	push   %eax
  101501:	56                   	push   %esi
  101502:	e8 c9 ec ff ff       	call   1001d0 <bread>
  101507:	89 c5                	mov    %eax,%ebp
    dip = (struct dinode*)bp->data + inum%IPB;
  101509:	89 d8                	mov    %ebx,%eax
    if(dip->type == 0){  // a free inode
  10150b:	83 c4 10             	add    $0x10,%esp
    dip = (struct dinode*)bp->data + inum%IPB;
  10150e:	83 e0 07             	and    $0x7,%eax
  101511:	c1 e0 06             	shl    $0x6,%eax
  101514:	8d 54 05 18          	lea    0x18(%ebp,%eax,1),%edx
    if(dip->type == 0){  // a free inode
  101518:	66 83 3a 00          	cmpw   $0x0,(%edx)
  10151c:	75 c2                	jne    1014e0 <ialloc+0x30>
      memset(dip, 0, sizeof(*dip));
  10151e:	83 ec 04             	sub    $0x4,%esp
  101521:	6a 40                	push   $0x40
  101523:	6a 00                	push   $0x0
  101525:	52                   	push   %edx
  101526:	89 54 24 1c          	mov    %edx,0x1c(%esp)
  10152a:	e8 51 28 00 00       	call   103d80 <memset>
      dip->type = type;
  10152f:	8b 54 24 1c          	mov    0x1c(%esp),%edx
  101533:	66 89 3a             	mov    %di,(%edx)
      bwrite(bp);   // mark it allocated on the disk
  101536:	89 2c 24             	mov    %ebp,(%esp)
  101539:	e8 72 ed ff ff       	call   1002b0 <bwrite>
      brelse(bp);
  10153e:	89 2c 24             	mov    %ebp,(%esp)
  101541:	e8 9a ed ff ff       	call   1002e0 <brelse>
      return iget(dev, inum);
  101546:	89 da                	mov    %ebx,%edx
  101548:	89 f0                	mov    %esi,%eax
  10154a:	e8 c1 fd ff ff       	call   101310 <iget>
}
  10154f:	83 c4 3c             	add    $0x3c,%esp
  101552:	5b                   	pop    %ebx
  101553:	5e                   	pop    %esi
  101554:	5f                   	pop    %edi
  101555:	5d                   	pop    %ebp
  101556:	c3                   	ret    
  panic("ialloc: no inodes");
  101557:	83 ec 0c             	sub    $0xc,%esp
  10155a:	68 60 5e 10 00       	push   $0x105e60
  10155f:	e8 ac f2 ff ff       	call   100810 <panic>
  101564:	8d b6 00 00 00 00    	lea    0x0(%esi),%esi
  10156a:	8d bf 00 00 00 00    	lea    0x0(%edi),%edi

00101570 <iupdate>:
{
  101570:	56                   	push   %esi
  101571:	53                   	push   %ebx
  101572:	83 ec 0c             	sub    $0xc,%esp
  101575:	8b 5c 24 18          	mov    0x18(%esp),%ebx
  bp = bread(ip->dev, IBLOCK(ip->inum));
  101579:	8b 43 04             	mov    0x4(%ebx),%eax
  memmove(dip->addrs, ip->addrs, sizeof(ip->addrs));
  10157c:	83 c3 1c             	add    $0x1c,%ebx
  bp = bread(ip->dev, IBLOCK(ip->inum));
  10157f:	c1 e8 03             	shr    $0x3,%eax
  101582:	83 c0 02             	add    $0x2,%eax
  101585:	50                   	push   %eax
  101586:	ff 73 e4             	pushl  -0x1c(%ebx)
  101589:	e8 42 ec ff ff       	call   1001d0 <bread>
  10158e:	89 c6                	mov    %eax,%esi
  dip = (struct dinode*)bp->data + ip->inum%IPB;
  101590:	8b 43 e8             	mov    -0x18(%ebx),%eax
  dip->type = ip->type;
  101593:	0f b7 53 f4          	movzwl -0xc(%ebx),%edx
  memmove(dip->addrs, ip->addrs, sizeof(ip->addrs));
  101597:	83 c4 0c             	add    $0xc,%esp
  dip = (struct dinode*)bp->data + ip->inum%IPB;
  10159a:	83 e0 07             	and    $0x7,%eax
  10159d:	c1 e0 06             	shl    $0x6,%eax
  1015a0:	8d 44 06 18          	lea    0x18(%esi,%eax,1),%eax
  dip->type = ip->type;
  1015a4:	66 89 10             	mov    %dx,(%eax)
  dip->major = ip->major;
  1015a7:	0f b7 53 f6          	movzwl -0xa(%ebx),%edx
  memmove(dip->addrs, ip->addrs, sizeof(ip->addrs));
  1015ab:	83 c0 0c             	add    $0xc,%eax
  dip->major = ip->major;
  1015ae:	66 89 50 f6          	mov    %dx,-0xa(%eax)
  dip->minor = ip->minor;
  1015b2:	0f b7 53 f8          	movzwl -0x8(%ebx),%edx
  1015b6:	66 89 50 f8          	mov    %dx,-0x8(%eax)
  dip->nlink = ip->nlink;
  1015ba:	0f b7 53 fa          	movzwl -0x6(%ebx),%edx
  1015be:	66 89 50 fa          	mov    %dx,-0x6(%eax)
  dip->size = ip->size;
  1015c2:	8b 53 fc             	mov    -0x4(%ebx),%edx
  1015c5:	89 50 fc             	mov    %edx,-0x4(%eax)
  memmove(dip->addrs, ip->addrs, sizeof(ip->addrs));
  1015c8:	6a 34                	push   $0x34
  1015ca:	53                   	push   %ebx
  1015cb:	50                   	push   %eax
  1015cc:	e8 2f 28 00 00       	call   103e00 <memmove>
  bwrite(bp);
  1015d1:	89 34 24             	mov    %esi,(%esp)
  1015d4:	e8 d7 ec ff ff       	call   1002b0 <bwrite>
  brelse(bp);
  1015d9:	89 74 24 20          	mov    %esi,0x20(%esp)
}
  1015dd:	83 c4 14             	add    $0x14,%esp
  1015e0:	5b                   	pop    %ebx
  1015e1:	5e                   	pop    %esi
  brelse(bp);
  1015e2:	e9 f9 ec ff ff       	jmp    1002e0 <brelse>
  1015e7:	89 f6                	mov    %esi,%esi
  1015e9:	8d bc 27 00 00 00 00 	lea    0x0(%edi,%eiz,1),%edi

001015f0 <idup>:
{
  1015f0:	53                   	push   %ebx
  1015f1:	83 ec 14             	sub    $0x14,%esp
  1015f4:	8b 5c 24 1c          	mov    0x1c(%esp),%ebx
  acquire(&icache.lock);
  1015f8:	68 60 ca 10 00       	push   $0x10ca60
  1015fd:	e8 8e 25 00 00       	call   103b90 <acquire>
  ip->ref++;
  101602:	83 43 08 01          	addl   $0x1,0x8(%ebx)
  release(&icache.lock);
  101606:	c7 04 24 60 ca 10 00 	movl   $0x10ca60,(%esp)
  10160d:	e8 1e 27 00 00       	call   103d30 <release>
}
  101612:	83 c4 18             	add    $0x18,%esp
  101615:	89 d8                	mov    %ebx,%eax
  101617:	5b                   	pop    %ebx
  101618:	c3                   	ret    
  101619:	8d b4 26 00 00 00 00 	lea    0x0(%esi,%eiz,1),%esi

00101620 <ilock>:
{
  101620:	56                   	push   %esi
  101621:	53                   	push   %ebx
  101622:	83 ec 04             	sub    $0x4,%esp
  101625:	8b 5c 24 10          	mov    0x10(%esp),%ebx
  if(ip == 0 || ip->ref < 1)
  101629:	85 db                	test   %ebx,%ebx
  10162b:	0f 84 e7 00 00 00    	je     101718 <ilock+0xf8>
  101631:	8b 43 08             	mov    0x8(%ebx),%eax
  101634:	85 c0                	test   %eax,%eax
  101636:	0f 8e dc 00 00 00    	jle    101718 <ilock+0xf8>
  acquire(&icache.lock);
  10163c:	83 ec 0c             	sub    $0xc,%esp
  10163f:	68 60 ca 10 00       	push   $0x10ca60
  101644:	e8 47 25 00 00       	call   103b90 <acquire>
  while(ip->flags & I_BUSY)
  101649:	8b 43 0c             	mov    0xc(%ebx),%eax
  10164c:	83 c4 10             	add    $0x10,%esp
  10164f:	a8 01                	test   $0x1,%al
  101651:	74 1d                	je     101670 <ilock+0x50>
  101653:	90                   	nop
  101654:	8d 74 26 00          	lea    0x0(%esi,%eiz,1),%esi
    sleep(ip, &icache.lock);
  101658:	83 ec 08             	sub    $0x8,%esp
  10165b:	68 60 ca 10 00       	push   $0x10ca60
  101660:	53                   	push   %ebx
  101661:	e8 2a 21 00 00       	call   103790 <sleep>
  while(ip->flags & I_BUSY)
  101666:	8b 43 0c             	mov    0xc(%ebx),%eax
  101669:	83 c4 10             	add    $0x10,%esp
  10166c:	a8 01                	test   $0x1,%al
  10166e:	75 e8                	jne    101658 <ilock+0x38>
  release(&icache.lock);
  101670:	83 ec 0c             	sub    $0xc,%esp
  ip->flags |= I_BUSY;
  101673:	83 c8 01             	or     $0x1,%eax
  101676:	89 43 0c             	mov    %eax,0xc(%ebx)
  release(&icache.lock);
  101679:	68 60 ca 10 00       	push   $0x10ca60
  10167e:	e8 ad 26 00 00       	call   103d30 <release>
  if(!(ip->flags & I_VALID)){
  101683:	83 c4 10             	add    $0x10,%esp
  101686:	f6 43 0c 02          	testb  $0x2,0xc(%ebx)
  10168a:	74 0c                	je     101698 <ilock+0x78>
}
  10168c:	83 c4 04             	add    $0x4,%esp
  10168f:	5b                   	pop    %ebx
  101690:	5e                   	pop    %esi
  101691:	c3                   	ret    
  101692:	8d b6 00 00 00 00    	lea    0x0(%esi),%esi
    bp = bread(ip->dev, IBLOCK(ip->inum));
  101698:	8b 43 04             	mov    0x4(%ebx),%eax
  10169b:	83 ec 08             	sub    $0x8,%esp
  10169e:	c1 e8 03             	shr    $0x3,%eax
  1016a1:	83 c0 02             	add    $0x2,%eax
  1016a4:	50                   	push   %eax
  1016a5:	ff 33                	pushl  (%ebx)
  1016a7:	e8 24 eb ff ff       	call   1001d0 <bread>
  1016ac:	89 c6                	mov    %eax,%esi
    dip = (struct dinode*)bp->data + ip->inum%IPB;
  1016ae:	8b 43 04             	mov    0x4(%ebx),%eax
    memmove(ip->addrs, dip->addrs, sizeof(ip->addrs));
  1016b1:	83 c4 0c             	add    $0xc,%esp
    dip = (struct dinode*)bp->data + ip->inum%IPB;
  1016b4:	83 e0 07             	and    $0x7,%eax
  1016b7:	c1 e0 06             	shl    $0x6,%eax
  1016ba:	8d 44 06 18          	lea    0x18(%esi,%eax,1),%eax
    ip->type = dip->type;
  1016be:	0f b7 10             	movzwl (%eax),%edx
    memmove(ip->addrs, dip->addrs, sizeof(ip->addrs));
  1016c1:	83 c0 0c             	add    $0xc,%eax
    ip->type = dip->type;
  1016c4:	66 89 53 10          	mov    %dx,0x10(%ebx)
    ip->major = dip->major;
  1016c8:	0f b7 50 f6          	movzwl -0xa(%eax),%edx
  1016cc:	66 89 53 12          	mov    %dx,0x12(%ebx)
    ip->minor = dip->minor;
  1016d0:	0f b7 50 f8          	movzwl -0x8(%eax),%edx
  1016d4:	66 89 53 14          	mov    %dx,0x14(%ebx)
    ip->nlink = dip->nlink;
  1016d8:	0f b7 50 fa          	movzwl -0x6(%eax),%edx
  1016dc:	66 89 53 16          	mov    %dx,0x16(%ebx)
    ip->size = dip->size;
  1016e0:	8b 50 fc             	mov    -0x4(%eax),%edx
  1016e3:	89 53 18             	mov    %edx,0x18(%ebx)
    memmove(ip->addrs, dip->addrs, sizeof(ip->addrs));
  1016e6:	6a 34                	push   $0x34
  1016e8:	50                   	push   %eax
  1016e9:	8d 43 1c             	lea    0x1c(%ebx),%eax
  1016ec:	50                   	push   %eax
  1016ed:	e8 0e 27 00 00       	call   103e00 <memmove>
    brelse(bp);
  1016f2:	89 34 24             	mov    %esi,(%esp)
  1016f5:	e8 e6 eb ff ff       	call   1002e0 <brelse>
    ip->flags |= I_VALID;
  1016fa:	83 4b 0c 02          	orl    $0x2,0xc(%ebx)
    if(ip->type == 0)
  1016fe:	83 c4 10             	add    $0x10,%esp
  101701:	66 83 7b 10 00       	cmpw   $0x0,0x10(%ebx)
  101706:	75 84                	jne    10168c <ilock+0x6c>
      panic("ilock: no type");
  101708:	83 ec 0c             	sub    $0xc,%esp
  10170b:	68 78 5e 10 00       	push   $0x105e78
  101710:	e8 fb f0 ff ff       	call   100810 <panic>
  101715:	8d 76 00             	lea    0x0(%esi),%esi
    panic("ilock");
  101718:	83 ec 0c             	sub    $0xc,%esp
  10171b:	68 72 5e 10 00       	push   $0x105e72
  101720:	e8 eb f0 ff ff       	call   100810 <panic>
  101725:	8d 74 26 00          	lea    0x0(%esi,%eiz,1),%esi
  101729:	8d bc 27 00 00 00 00 	lea    0x0(%edi,%eiz,1),%edi

00101730 <iunlock>:
{
  101730:	53                   	push   %ebx
  101731:	83 ec 08             	sub    $0x8,%esp
  101734:	8b 5c 24 10          	mov    0x10(%esp),%ebx
  if(ip == 0 || !(ip->flags & I_BUSY) || ip->ref < 1)
  101738:	85 db                	test   %ebx,%ebx
  10173a:	74 37                	je     101773 <iunlock+0x43>
  10173c:	f6 43 0c 01          	testb  $0x1,0xc(%ebx)
  101740:	74 31                	je     101773 <iunlock+0x43>
  101742:	8b 43 08             	mov    0x8(%ebx),%eax
  101745:	85 c0                	test   %eax,%eax
  101747:	7e 2a                	jle    101773 <iunlock+0x43>
  acquire(&icache.lock);
  101749:	83 ec 0c             	sub    $0xc,%esp
  10174c:	68 60 ca 10 00       	push   $0x10ca60
  101751:	e8 3a 24 00 00       	call   103b90 <acquire>
  ip->flags &= ~I_BUSY;
  101756:	83 63 0c fe          	andl   $0xfffffffe,0xc(%ebx)
  wakeup(ip);
  10175a:	89 1c 24             	mov    %ebx,(%esp)
  10175d:	e8 ee 20 00 00       	call   103850 <wakeup>
  release(&icache.lock);
  101762:	c7 44 24 20 60 ca 10 	movl   $0x10ca60,0x20(%esp)
  101769:	00 
}
  10176a:	83 c4 18             	add    $0x18,%esp
  10176d:	5b                   	pop    %ebx
  release(&icache.lock);
  10176e:	e9 bd 25 00 00       	jmp    103d30 <release>
    panic("iunlock");
  101773:	83 ec 0c             	sub    $0xc,%esp
  101776:	68 87 5e 10 00       	push   $0x105e87
  10177b:	e8 90 f0 ff ff       	call   100810 <panic>

00101780 <iput>:
{
  101780:	55                   	push   %ebp
  101781:	57                   	push   %edi
  101782:	56                   	push   %esi
  101783:	53                   	push   %ebx
  101784:	83 ec 18             	sub    $0x18,%esp
  101787:	8b 74 24 2c          	mov    0x2c(%esp),%esi
  acquire(&icache.lock);
  10178b:	68 60 ca 10 00       	push   $0x10ca60
  101790:	e8 fb 23 00 00       	call   103b90 <acquire>
  if(ip->ref == 1 && (ip->flags & I_VALID) && ip->nlink == 0){
  101795:	8b 46 08             	mov    0x8(%esi),%eax
  101798:	83 c4 10             	add    $0x10,%esp
  10179b:	83 f8 01             	cmp    $0x1,%eax
  10179e:	0f 85 ac 00 00 00    	jne    101850 <iput+0xd0>
  1017a4:	8b 56 0c             	mov    0xc(%esi),%edx
  1017a7:	f6 c2 02             	test   $0x2,%dl
  1017aa:	0f 84 a0 00 00 00    	je     101850 <iput+0xd0>
  1017b0:	66 83 7e 16 00       	cmpw   $0x0,0x16(%esi)
  1017b5:	0f 85 95 00 00 00    	jne    101850 <iput+0xd0>
    if(ip->flags & I_BUSY)
  1017bb:	f6 c2 01             	test   $0x1,%dl
  1017be:	0f 85 04 01 00 00    	jne    1018c8 <iput+0x148>
    release(&icache.lock);
  1017c4:	83 ec 0c             	sub    $0xc,%esp
    ip->flags |= I_BUSY;
  1017c7:	83 ca 01             	or     $0x1,%edx
  1017ca:	8d 5e 1c             	lea    0x1c(%esi),%ebx
  1017cd:	89 56 0c             	mov    %edx,0xc(%esi)
    release(&icache.lock);
  1017d0:	68 60 ca 10 00       	push   $0x10ca60
  1017d5:	8d 7e 4c             	lea    0x4c(%esi),%edi
  1017d8:	e8 53 25 00 00       	call   103d30 <release>
  1017dd:	83 c4 10             	add    $0x10,%esp
  1017e0:	eb 0d                	jmp    1017ef <iput+0x6f>
  1017e2:	8d b6 00 00 00 00    	lea    0x0(%esi),%esi
  1017e8:	83 c3 04             	add    $0x4,%ebx
{
  int i, j;
  struct buf *bp;
  uint *a;

  for(i = 0; i < NDIRECT; i++){
  1017eb:	39 fb                	cmp    %edi,%ebx
  1017ed:	74 1b                	je     10180a <iput+0x8a>
    if(ip->addrs[i]){
  1017ef:	8b 13                	mov    (%ebx),%edx
  1017f1:	85 d2                	test   %edx,%edx
  1017f3:	74 f3                	je     1017e8 <iput+0x68>
      bfree(ip->dev, ip->addrs[i]);
  1017f5:	8b 06                	mov    (%esi),%eax
  1017f7:	83 c3 04             	add    $0x4,%ebx
  1017fa:	e8 81 f9 ff ff       	call   101180 <bfree>
      ip->addrs[i] = 0;
  1017ff:	c7 43 fc 00 00 00 00 	movl   $0x0,-0x4(%ebx)
  for(i = 0; i < NDIRECT; i++){
  101806:	39 fb                	cmp    %edi,%ebx
  101808:	75 e5                	jne    1017ef <iput+0x6f>
    }
  }
  
  if(ip->addrs[NDIRECT]){
  10180a:	8b 46 4c             	mov    0x4c(%esi),%eax
  10180d:	85 c0                	test   %eax,%eax
  10180f:	75 5f                	jne    101870 <iput+0xf0>
    bfree(ip->dev, ip->addrs[NDIRECT]);
    ip->addrs[NDIRECT] = 0;
  }

  ip->size = 0;
  iupdate(ip);
  101811:	83 ec 0c             	sub    $0xc,%esp
  ip->size = 0;
  101814:	c7 46 18 00 00 00 00 	movl   $0x0,0x18(%esi)
  iupdate(ip);
  10181b:	56                   	push   %esi
  10181c:	e8 4f fd ff ff       	call   101570 <iupdate>
    ip->type = 0;
  101821:	31 c0                	xor    %eax,%eax
  101823:	66 89 46 10          	mov    %ax,0x10(%esi)
    iupdate(ip);
  101827:	89 34 24             	mov    %esi,(%esp)
  10182a:	e8 41 fd ff ff       	call   101570 <iupdate>
    acquire(&icache.lock);
  10182f:	c7 04 24 60 ca 10 00 	movl   $0x10ca60,(%esp)
  101836:	e8 55 23 00 00       	call   103b90 <acquire>
    ip->flags = 0;
  10183b:	c7 46 0c 00 00 00 00 	movl   $0x0,0xc(%esi)
    wakeup(ip);
  101842:	89 34 24             	mov    %esi,(%esp)
  101845:	e8 06 20 00 00       	call   103850 <wakeup>
  10184a:	8b 46 08             	mov    0x8(%esi),%eax
  10184d:	83 c4 10             	add    $0x10,%esp
  ip->ref--;
  101850:	83 e8 01             	sub    $0x1,%eax
  101853:	89 46 08             	mov    %eax,0x8(%esi)
  release(&icache.lock);
  101856:	c7 44 24 20 60 ca 10 	movl   $0x10ca60,0x20(%esp)
  10185d:	00 
}
  10185e:	83 c4 0c             	add    $0xc,%esp
  101861:	5b                   	pop    %ebx
  101862:	5e                   	pop    %esi
  101863:	5f                   	pop    %edi
  101864:	5d                   	pop    %ebp
  release(&icache.lock);
  101865:	e9 c6 24 00 00       	jmp    103d30 <release>
  10186a:	8d b6 00 00 00 00    	lea    0x0(%esi),%esi
    bp = bread(ip->dev, ip->addrs[NDIRECT]);
  101870:	83 ec 08             	sub    $0x8,%esp
  101873:	50                   	push   %eax
  101874:	ff 36                	pushl  (%esi)
  101876:	e8 55 e9 ff ff       	call   1001d0 <bread>
  10187b:	83 c4 10             	add    $0x10,%esp
  10187e:	89 c7                	mov    %eax,%edi
    a = (uint*)bp->data;
  101880:	8d 58 18             	lea    0x18(%eax),%ebx
  101883:	8d a8 18 02 00 00    	lea    0x218(%eax),%ebp
  101889:	eb 0c                	jmp    101897 <iput+0x117>
  10188b:	90                   	nop
  10188c:	8d 74 26 00          	lea    0x0(%esi,%eiz,1),%esi
  101890:	83 c3 04             	add    $0x4,%ebx
    for(j = 0; j < NINDIRECT; j++){
  101893:	39 dd                	cmp    %ebx,%ebp
  101895:	74 0f                	je     1018a6 <iput+0x126>
      if(a[j])
  101897:	8b 13                	mov    (%ebx),%edx
  101899:	85 d2                	test   %edx,%edx
  10189b:	74 f3                	je     101890 <iput+0x110>
        bfree(ip->dev, a[j]);
  10189d:	8b 06                	mov    (%esi),%eax
  10189f:	e8 dc f8 ff ff       	call   101180 <bfree>
  1018a4:	eb ea                	jmp    101890 <iput+0x110>
    brelse(bp);
  1018a6:	83 ec 0c             	sub    $0xc,%esp
  1018a9:	57                   	push   %edi
  1018aa:	e8 31 ea ff ff       	call   1002e0 <brelse>
    bfree(ip->dev, ip->addrs[NDIRECT]);
  1018af:	8b 56 4c             	mov    0x4c(%esi),%edx
  1018b2:	8b 06                	mov    (%esi),%eax
  1018b4:	e8 c7 f8 ff ff       	call   101180 <bfree>
    ip->addrs[NDIRECT] = 0;
  1018b9:	c7 46 4c 00 00 00 00 	movl   $0x0,0x4c(%esi)
  1018c0:	83 c4 10             	add    $0x10,%esp
  1018c3:	e9 49 ff ff ff       	jmp    101811 <iput+0x91>
      panic("iput busy");
  1018c8:	83 ec 0c             	sub    $0xc,%esp
  1018cb:	68 8f 5e 10 00       	push   $0x105e8f
  1018d0:	e8 3b ef ff ff       	call   100810 <panic>
  1018d5:	8d 74 26 00          	lea    0x0(%esi,%eiz,1),%esi
  1018d9:	8d bc 27 00 00 00 00 	lea    0x0(%edi,%eiz,1),%edi

001018e0 <iunlockput>:
{
  1018e0:	53                   	push   %ebx
  1018e1:	83 ec 14             	sub    $0x14,%esp
  1018e4:	8b 5c 24 1c          	mov    0x1c(%esp),%ebx
  iunlock(ip);
  1018e8:	53                   	push   %ebx
  1018e9:	e8 42 fe ff ff       	call   101730 <iunlock>
  iput(ip);
  1018ee:	89 5c 24 20          	mov    %ebx,0x20(%esp)
}
  1018f2:	83 c4 18             	add    $0x18,%esp
  1018f5:	5b                   	pop    %ebx
  iput(ip);
  1018f6:	e9 85 fe ff ff       	jmp    101780 <iput>
  1018fb:	90                   	nop
  1018fc:	8d 74 26 00          	lea    0x0(%esi,%eiz,1),%esi

00101900 <stati>:
}

// Copy stat information from inode.
void
stati(struct inode *ip, struct stat_new *st)
{
  101900:	8b 54 24 04          	mov    0x4(%esp),%edx
  101904:	8b 44 24 08          	mov    0x8(%esp),%eax
  st->dev = ip->dev;
  101908:	8b 0a                	mov    (%edx),%ecx
  10190a:	89 48 04             	mov    %ecx,0x4(%eax)
  st->ino = ip->inum;
  10190d:	8b 4a 04             	mov    0x4(%edx),%ecx
  101910:	89 48 08             	mov    %ecx,0x8(%eax)
  st->type = ip->type;
  101913:	0f b7 4a 10          	movzwl 0x10(%edx),%ecx
  101917:	66 89 08             	mov    %cx,(%eax)
  st->nlink = ip->nlink;
  10191a:	0f b7 4a 16          	movzwl 0x16(%edx),%ecx
  10191e:	66 89 48 0c          	mov    %cx,0xc(%eax)
  st->size = ip->size;
  101922:	8b 52 18             	mov    0x18(%edx),%edx
  101925:	89 50 10             	mov    %edx,0x10(%eax)
  101928:	c3                   	ret    
  101929:	8d b4 26 00 00 00 00 	lea    0x0(%esi,%eiz,1),%esi

00101930 <readi>:
}

// Read data from inode.
int
readi(struct inode *ip, char *dst, uint off, uint n)
{
  101930:	55                   	push   %ebp
  101931:	57                   	push   %edi
  101932:	56                   	push   %esi
  101933:	53                   	push   %ebx
  101934:	83 ec 1c             	sub    $0x1c,%esp
  101937:	8b 44 24 30          	mov    0x30(%esp),%eax
  10193b:	8b 7c 24 3c          	mov    0x3c(%esp),%edi
  10193f:	8b 6c 24 34          	mov    0x34(%esp),%ebp
  101943:	8b 74 24 38          	mov    0x38(%esp),%esi
  uint tot, m;
  struct buf *bp;

  if(ip->type == T_DEV){
  101947:	66 83 78 10 03       	cmpw   $0x3,0x10(%eax)
{
  10194c:	89 44 24 0c          	mov    %eax,0xc(%esp)
  101950:	89 7c 24 04          	mov    %edi,0x4(%esp)
  if(ip->type == T_DEV){
  101954:	0f 84 a6 00 00 00    	je     101a00 <readi+0xd0>
    if(ip->major < 0 || ip->major >= NDEV || !devsw[ip->major].read)
      return -1;
    return devsw[ip->major].read(ip, dst, n);
  }

  if(off > ip->size || off + n < off)
  10195a:	8b 44 24 0c          	mov    0xc(%esp),%eax
  10195e:	8b 40 18             	mov    0x18(%eax),%eax
  101961:	39 f0                	cmp    %esi,%eax
  101963:	0f 82 b9 00 00 00    	jb     101a22 <readi+0xf2>
  101969:	8b 7c 24 04          	mov    0x4(%esp),%edi
  10196d:	89 f9                	mov    %edi,%ecx
  10196f:	01 f1                	add    %esi,%ecx
  101971:	0f 82 ab 00 00 00    	jb     101a22 <readi+0xf2>
    return -1;
  if(off + n > ip->size)
    n = ip->size - off;
  101977:	89 c2                	mov    %eax,%edx
  101979:	29 f2                	sub    %esi,%edx
  10197b:	39 c8                	cmp    %ecx,%eax
  10197d:	0f 43 d7             	cmovae %edi,%edx

  for(tot=0; tot<n; tot+=m, off+=m, dst+=m){
  101980:	31 ff                	xor    %edi,%edi
  101982:	85 d2                	test   %edx,%edx
    n = ip->size - off;
  101984:	89 54 24 04          	mov    %edx,0x4(%esp)
  for(tot=0; tot<n; tot+=m, off+=m, dst+=m){
  101988:	74 6a                	je     1019f4 <readi+0xc4>
  10198a:	8d b6 00 00 00 00    	lea    0x0(%esi),%esi
    bp = bread(ip->dev, bmap(ip, off/BSIZE));
  101990:	8b 5c 24 0c          	mov    0xc(%esp),%ebx
  101994:	89 f2                	mov    %esi,%edx
  101996:	c1 ea 09             	shr    $0x9,%edx
  101999:	89 d8                	mov    %ebx,%eax
  10199b:	e8 30 fa ff ff       	call   1013d0 <bmap>
  1019a0:	83 ec 08             	sub    $0x8,%esp
  1019a3:	50                   	push   %eax
  1019a4:	ff 33                	pushl  (%ebx)
  1019a6:	e8 25 e8 ff ff       	call   1001d0 <bread>
    m = min(n - tot, BSIZE - off%BSIZE);
  1019ab:	8b 5c 24 14          	mov    0x14(%esp),%ebx
    bp = bread(ip->dev, bmap(ip, off/BSIZE));
  1019af:	89 c2                	mov    %eax,%edx
    m = min(n - tot, BSIZE - off%BSIZE);
  1019b1:	89 f0                	mov    %esi,%eax
  1019b3:	25 ff 01 00 00       	and    $0x1ff,%eax
  1019b8:	b9 00 02 00 00       	mov    $0x200,%ecx
  1019bd:	83 c4 0c             	add    $0xc,%esp
  1019c0:	29 c1                	sub    %eax,%ecx
    memmove(dst, bp->data + off%BSIZE, m);
  1019c2:	8d 44 02 18          	lea    0x18(%edx,%eax,1),%eax
    m = min(n - tot, BSIZE - off%BSIZE);
  1019c6:	29 fb                	sub    %edi,%ebx
  1019c8:	39 d9                	cmp    %ebx,%ecx
  1019ca:	0f 46 d9             	cmovbe %ecx,%ebx
    memmove(dst, bp->data + off%BSIZE, m);
  1019cd:	53                   	push   %ebx
  for(tot=0; tot<n; tot+=m, off+=m, dst+=m){
  1019ce:	01 df                	add    %ebx,%edi
  1019d0:	01 de                	add    %ebx,%esi
    memmove(dst, bp->data + off%BSIZE, m);
  1019d2:	89 54 24 10          	mov    %edx,0x10(%esp)
  1019d6:	50                   	push   %eax
  1019d7:	55                   	push   %ebp
  for(tot=0; tot<n; tot+=m, off+=m, dst+=m){
  1019d8:	01 dd                	add    %ebx,%ebp
    memmove(dst, bp->data + off%BSIZE, m);
  1019da:	e8 21 24 00 00       	call   103e00 <memmove>
    brelse(bp);
  1019df:	8b 54 24 18          	mov    0x18(%esp),%edx
  1019e3:	89 14 24             	mov    %edx,(%esp)
  1019e6:	e8 f5 e8 ff ff       	call   1002e0 <brelse>
  for(tot=0; tot<n; tot+=m, off+=m, dst+=m){
  1019eb:	83 c4 10             	add    $0x10,%esp
  1019ee:	39 7c 24 04          	cmp    %edi,0x4(%esp)
  1019f2:	77 9c                	ja     101990 <readi+0x60>
  }
  return n;
  1019f4:	8b 44 24 04          	mov    0x4(%esp),%eax
}
  1019f8:	83 c4 1c             	add    $0x1c,%esp
  1019fb:	5b                   	pop    %ebx
  1019fc:	5e                   	pop    %esi
  1019fd:	5f                   	pop    %edi
  1019fe:	5d                   	pop    %ebp
  1019ff:	c3                   	ret    
    if(ip->major < 0 || ip->major >= NDEV || !devsw[ip->major].read)
  101a00:	0f bf 40 12          	movswl 0x12(%eax),%eax
  101a04:	66 83 f8 09          	cmp    $0x9,%ax
  101a08:	77 18                	ja     101a22 <readi+0xf2>
  101a0a:	8b 04 c5 00 ca 10 00 	mov    0x10ca00(,%eax,8),%eax
  101a11:	85 c0                	test   %eax,%eax
  101a13:	74 0d                	je     101a22 <readi+0xf2>
    return devsw[ip->major].read(ip, dst, n);
  101a15:	89 7c 24 38          	mov    %edi,0x38(%esp)
}
  101a19:	83 c4 1c             	add    $0x1c,%esp
  101a1c:	5b                   	pop    %ebx
  101a1d:	5e                   	pop    %esi
  101a1e:	5f                   	pop    %edi
  101a1f:	5d                   	pop    %ebp
    return devsw[ip->major].read(ip, dst, n);
  101a20:	ff e0                	jmp    *%eax
      return -1;
  101a22:	b8 ff ff ff ff       	mov    $0xffffffff,%eax
  101a27:	eb cf                	jmp    1019f8 <readi+0xc8>
  101a29:	8d b4 26 00 00 00 00 	lea    0x0(%esi,%eiz,1),%esi

00101a30 <writei>:

// Write data to inode.
int
writei(struct inode *ip, char *src, uint off, uint n)
{
  101a30:	55                   	push   %ebp
  101a31:	57                   	push   %edi
  101a32:	56                   	push   %esi
  101a33:	53                   	push   %ebx
  101a34:	83 ec 1c             	sub    $0x1c,%esp
  101a37:	8b 44 24 30          	mov    0x30(%esp),%eax
  101a3b:	8b 7c 24 34          	mov    0x34(%esp),%edi
  101a3f:	8b 74 24 38          	mov    0x38(%esp),%esi
  uint tot, m;
  struct buf *bp;

  if(ip->type == T_DEV){
  101a43:	66 83 78 10 03       	cmpw   $0x3,0x10(%eax)
{
  101a48:	89 7c 24 08          	mov    %edi,0x8(%esp)
  101a4c:	8b 7c 24 3c          	mov    0x3c(%esp),%edi
  101a50:	89 44 24 0c          	mov    %eax,0xc(%esp)
  101a54:	89 7c 24 04          	mov    %edi,0x4(%esp)
  if(ip->type == T_DEV){
  101a58:	0f 84 c2 00 00 00    	je     101b20 <writei+0xf0>
    if(ip->major < 0 || ip->major >= NDEV || !devsw[ip->major].write)
      return -1;
    return devsw[ip->major].write(ip, src, n);
  }

  if(off > ip->size || off + n < off)
  101a5e:	8b 44 24 0c          	mov    0xc(%esp),%eax
  101a62:	39 70 18             	cmp    %esi,0x18(%eax)
  101a65:	0f 82 f2 00 00 00    	jb     101b5d <writei+0x12d>
  101a6b:	8b 7c 24 04          	mov    0x4(%esp),%edi
  101a6f:	89 fa                	mov    %edi,%edx
  101a71:	01 f2                	add    %esi,%edx
  101a73:	0f 82 e4 00 00 00    	jb     101b5d <writei+0x12d>
    return -1;
  if(off + n > MAXFILE*BSIZE)
    n = MAXFILE*BSIZE - off;
  101a79:	b8 00 18 01 00       	mov    $0x11800,%eax
  101a7e:	29 f0                	sub    %esi,%eax
  101a80:	81 fa 01 18 01 00    	cmp    $0x11801,%edx
  101a86:	0f 42 c7             	cmovb  %edi,%eax

  for(tot=0; tot<n; tot+=m, off+=m, src+=m){
  101a89:	31 ff                	xor    %edi,%edi
  101a8b:	85 c0                	test   %eax,%eax
    n = MAXFILE*BSIZE - off;
  101a8d:	89 44 24 04          	mov    %eax,0x4(%esp)
  for(tot=0; tot<n; tot+=m, off+=m, src+=m){
  101a91:	74 77                	je     101b0a <writei+0xda>
  101a93:	90                   	nop
  101a94:	8d 74 26 00          	lea    0x0(%esi,%eiz,1),%esi
    bp = bread(ip->dev, bmap(ip, off/BSIZE));
  101a98:	8b 5c 24 0c          	mov    0xc(%esp),%ebx
  101a9c:	89 f2                	mov    %esi,%edx
  101a9e:	c1 ea 09             	shr    $0x9,%edx
  101aa1:	89 d8                	mov    %ebx,%eax
  101aa3:	e8 28 f9 ff ff       	call   1013d0 <bmap>
  101aa8:	83 ec 08             	sub    $0x8,%esp
  101aab:	50                   	push   %eax
  101aac:	ff 33                	pushl  (%ebx)
  101aae:	e8 1d e7 ff ff       	call   1001d0 <bread>
    m = min(n - tot, BSIZE - off%BSIZE);
  101ab3:	8b 5c 24 14          	mov    0x14(%esp),%ebx
    bp = bread(ip->dev, bmap(ip, off/BSIZE));
  101ab7:	89 c5                	mov    %eax,%ebp
    m = min(n - tot, BSIZE - off%BSIZE);
  101ab9:	89 f0                	mov    %esi,%eax
  101abb:	25 ff 01 00 00       	and    $0x1ff,%eax
  101ac0:	b9 00 02 00 00       	mov    $0x200,%ecx
  101ac5:	83 c4 0c             	add    $0xc,%esp
  101ac8:	29 c1                	sub    %eax,%ecx
    memmove(bp->data + off%BSIZE, src, m);
  101aca:	8d 44 05 18          	lea    0x18(%ebp,%eax,1),%eax
    m = min(n - tot, BSIZE - off%BSIZE);
  101ace:	29 fb                	sub    %edi,%ebx
  101ad0:	39 d9                	cmp    %ebx,%ecx
  101ad2:	0f 46 d9             	cmovbe %ecx,%ebx
    memmove(bp->data + off%BSIZE, src, m);
  101ad5:	53                   	push   %ebx
  101ad6:	ff 74 24 10          	pushl  0x10(%esp)
  for(tot=0; tot<n; tot+=m, off+=m, src+=m){
  101ada:	01 df                	add    %ebx,%edi
    memmove(bp->data + off%BSIZE, src, m);
  101adc:	50                   	push   %eax
  for(tot=0; tot<n; tot+=m, off+=m, src+=m){
  101add:	01 de                	add    %ebx,%esi
    memmove(bp->data + off%BSIZE, src, m);
  101adf:	e8 1c 23 00 00       	call   103e00 <memmove>
    bwrite(bp);
  101ae4:	89 2c 24             	mov    %ebp,(%esp)
  101ae7:	e8 c4 e7 ff ff       	call   1002b0 <bwrite>
    brelse(bp);
  101aec:	89 2c 24             	mov    %ebp,(%esp)
  101aef:	e8 ec e7 ff ff       	call   1002e0 <brelse>
  for(tot=0; tot<n; tot+=m, off+=m, src+=m){
  101af4:	01 5c 24 18          	add    %ebx,0x18(%esp)
  101af8:	83 c4 10             	add    $0x10,%esp
  101afb:	39 7c 24 04          	cmp    %edi,0x4(%esp)
  101aff:	77 97                	ja     101a98 <writei+0x68>
  }

  if(n > 0 && off > ip->size){
  101b01:	8b 44 24 0c          	mov    0xc(%esp),%eax
  101b05:	3b 70 18             	cmp    0x18(%eax),%esi
  101b08:	77 3e                	ja     101b48 <writei+0x118>
    ip->size = off;
    iupdate(ip);
  }
  return n;
  101b0a:	8b 44 24 04          	mov    0x4(%esp),%eax
}
  101b0e:	83 c4 1c             	add    $0x1c,%esp
  101b11:	5b                   	pop    %ebx
  101b12:	5e                   	pop    %esi
  101b13:	5f                   	pop    %edi
  101b14:	5d                   	pop    %ebp
  101b15:	c3                   	ret    
  101b16:	8d 76 00             	lea    0x0(%esi),%esi
  101b19:	8d bc 27 00 00 00 00 	lea    0x0(%edi,%eiz,1),%edi
    if(ip->major < 0 || ip->major >= NDEV || !devsw[ip->major].write)
  101b20:	0f bf 40 12          	movswl 0x12(%eax),%eax
  101b24:	66 83 f8 09          	cmp    $0x9,%ax
  101b28:	77 33                	ja     101b5d <writei+0x12d>
  101b2a:	8b 04 c5 04 ca 10 00 	mov    0x10ca04(,%eax,8),%eax
  101b31:	85 c0                	test   %eax,%eax
  101b33:	74 28                	je     101b5d <writei+0x12d>
    return devsw[ip->major].write(ip, src, n);
  101b35:	89 7c 24 38          	mov    %edi,0x38(%esp)
}
  101b39:	83 c4 1c             	add    $0x1c,%esp
  101b3c:	5b                   	pop    %ebx
  101b3d:	5e                   	pop    %esi
  101b3e:	5f                   	pop    %edi
  101b3f:	5d                   	pop    %ebp
    return devsw[ip->major].write(ip, src, n);
  101b40:	ff e0                	jmp    *%eax
  101b42:	8d b6 00 00 00 00    	lea    0x0(%esi),%esi
    ip->size = off;
  101b48:	8b 44 24 0c          	mov    0xc(%esp),%eax
    iupdate(ip);
  101b4c:	83 ec 0c             	sub    $0xc,%esp
    ip->size = off;
  101b4f:	89 70 18             	mov    %esi,0x18(%eax)
    iupdate(ip);
  101b52:	50                   	push   %eax
  101b53:	e8 18 fa ff ff       	call   101570 <iupdate>
  101b58:	83 c4 10             	add    $0x10,%esp
  101b5b:	eb ad                	jmp    101b0a <writei+0xda>
      return -1;
  101b5d:	b8 ff ff ff ff       	mov    $0xffffffff,%eax
  101b62:	eb aa                	jmp    101b0e <writei+0xde>
  101b64:	8d b6 00 00 00 00    	lea    0x0(%esi),%esi
  101b6a:	8d bf 00 00 00 00    	lea    0x0(%edi),%edi

00101b70 <namecmp>:

// Directories

int
namecmp(const char *s, const char *t)
{
  101b70:	83 ec 10             	sub    $0x10,%esp
  return strncmp(s, t, DIRSIZ);
  101b73:	6a 0e                	push   $0xe
  101b75:	ff 74 24 1c          	pushl  0x1c(%esp)
  101b79:	ff 74 24 1c          	pushl  0x1c(%esp)
  101b7d:	e8 de 22 00 00       	call   103e60 <strncmp>
}
  101b82:	83 c4 1c             	add    $0x1c,%esp
  101b85:	c3                   	ret    
  101b86:	8d 76 00             	lea    0x0(%esi),%esi
  101b89:	8d bc 27 00 00 00 00 	lea    0x0(%edi,%eiz,1),%edi

00101b90 <dirlookup>:
// Look for a directory entry in a directory.
// If found, set *poff to byte offset of entry.
// Caller must have already locked dp.
struct inode*
dirlookup(struct inode *dp, char *name, uint *poff)
{
  101b90:	55                   	push   %ebp
  101b91:	57                   	push   %edi
  101b92:	56                   	push   %esi
  101b93:	53                   	push   %ebx
  101b94:	83 ec 1c             	sub    $0x1c,%esp
  101b97:	8b 44 24 30          	mov    0x30(%esp),%eax
  101b9b:	8b 4c 24 38          	mov    0x38(%esp),%ecx
  101b9f:	8b 5c 24 34          	mov    0x34(%esp),%ebx
  uint off, inum;
  struct buf *bp;
  struct dirent *de;

  if(dp->type != T_DIR)
  101ba3:	66 83 78 10 01       	cmpw   $0x1,0x10(%eax)
{
  101ba8:	89 44 24 04          	mov    %eax,0x4(%esp)
  101bac:	89 4c 24 0c          	mov    %ecx,0xc(%esp)
  if(dp->type != T_DIR)
  101bb0:	0f 85 d9 00 00 00    	jne    101c8f <dirlookup+0xff>
    panic("dirlookup not DIR");

  for(off = 0; off < dp->size; off += BSIZE){
  101bb6:	8b 40 18             	mov    0x18(%eax),%eax
  101bb9:	c7 04 24 00 00 00 00 	movl   $0x0,(%esp)
  101bc0:	85 c0                	test   %eax,%eax
  101bc2:	0f 84 bd 00 00 00    	je     101c85 <dirlookup+0xf5>
    bp = bread(dp->dev, bmap(dp, off / BSIZE));
  101bc8:	8b 7c 24 04          	mov    0x4(%esp),%edi
  101bcc:	8b 14 24             	mov    (%esp),%edx
  101bcf:	89 f8                	mov    %edi,%eax
  101bd1:	c1 ea 09             	shr    $0x9,%edx
  101bd4:	e8 f7 f7 ff ff       	call   1013d0 <bmap>
  101bd9:	83 ec 08             	sub    $0x8,%esp
  101bdc:	50                   	push   %eax
  101bdd:	ff 37                	pushl  (%edi)
  101bdf:	e8 ec e5 ff ff       	call   1001d0 <bread>
  101be4:	89 c7                	mov    %eax,%edi
    for(de = (struct dirent*)bp->data;
  101be6:	8d 40 18             	lea    0x18(%eax),%eax
        de < (struct dirent*)(bp->data + BSIZE);
  101be9:	8d b7 18 02 00 00    	lea    0x218(%edi),%esi
    for(de = (struct dirent*)bp->data;
  101bef:	89 44 24 18          	mov    %eax,0x18(%esp)
  101bf3:	89 c5                	mov    %eax,%ebp
        de < (struct dirent*)(bp->data + BSIZE);
  101bf5:	83 c4 10             	add    $0x10,%esp
  101bf8:	eb 0d                	jmp    101c07 <dirlookup+0x77>
  101bfa:	8d b6 00 00 00 00    	lea    0x0(%esi),%esi
        de++){
  101c00:	83 c5 10             	add    $0x10,%ebp
    for(de = (struct dirent*)bp->data;
  101c03:	39 f5                	cmp    %esi,%ebp
  101c05:	73 59                	jae    101c60 <dirlookup+0xd0>
      if(de->inum == 0)
  101c07:	66 83 7d 00 00       	cmpw   $0x0,0x0(%ebp)
  101c0c:	74 f2                	je     101c00 <dirlookup+0x70>
  return strncmp(s, t, DIRSIZ);
  101c0e:	8d 45 02             	lea    0x2(%ebp),%eax
  101c11:	83 ec 04             	sub    $0x4,%esp
  101c14:	6a 0e                	push   $0xe
  101c16:	50                   	push   %eax
  101c17:	53                   	push   %ebx
  101c18:	e8 43 22 00 00       	call   103e60 <strncmp>
        continue;
      if(namecmp(name, de->name) == 0){
  101c1d:	83 c4 10             	add    $0x10,%esp
  101c20:	85 c0                	test   %eax,%eax
  101c22:	75 dc                	jne    101c00 <dirlookup+0x70>
        // entry matches path element
        if(poff)
  101c24:	8b 44 24 0c          	mov    0xc(%esp),%eax
  101c28:	85 c0                	test   %eax,%eax
  101c2a:	74 0b                	je     101c37 <dirlookup+0xa7>
          *poff = off + (uchar*)de - bp->data;
  101c2c:	8b 34 24             	mov    (%esp),%esi
  101c2f:	01 ee                	add    %ebp,%esi
  101c31:	2b 74 24 08          	sub    0x8(%esp),%esi
  101c35:	89 30                	mov    %esi,(%eax)
        inum = de->inum;
        brelse(bp);
  101c37:	83 ec 0c             	sub    $0xc,%esp
        inum = de->inum;
  101c3a:	0f b7 5d 00          	movzwl 0x0(%ebp),%ebx
        brelse(bp);
  101c3e:	57                   	push   %edi
  101c3f:	e8 9c e6 ff ff       	call   1002e0 <brelse>
        return iget(dp->dev, inum);
  101c44:	8b 44 24 14          	mov    0x14(%esp),%eax
  101c48:	89 da                	mov    %ebx,%edx
  101c4a:	8b 00                	mov    (%eax),%eax
      }
    }
    brelse(bp);
  }
  return 0;
}
  101c4c:	83 c4 2c             	add    $0x2c,%esp
  101c4f:	5b                   	pop    %ebx
  101c50:	5e                   	pop    %esi
  101c51:	5f                   	pop    %edi
  101c52:	5d                   	pop    %ebp
        return iget(dp->dev, inum);
  101c53:	e9 b8 f6 ff ff       	jmp    101310 <iget>
  101c58:	90                   	nop
  101c59:	8d b4 26 00 00 00 00 	lea    0x0(%esi,%eiz,1),%esi
    brelse(bp);
  101c60:	83 ec 0c             	sub    $0xc,%esp
  101c63:	57                   	push   %edi
  101c64:	e8 77 e6 ff ff       	call   1002e0 <brelse>
  for(off = 0; off < dp->size; off += BSIZE){
  101c69:	81 44 24 10 00 02 00 	addl   $0x200,0x10(%esp)
  101c70:	00 
  101c71:	8b 44 24 10          	mov    0x10(%esp),%eax
  101c75:	83 c4 10             	add    $0x10,%esp
  101c78:	8b 4c 24 04          	mov    0x4(%esp),%ecx
  101c7c:	39 41 18             	cmp    %eax,0x18(%ecx)
  101c7f:	0f 87 43 ff ff ff    	ja     101bc8 <dirlookup+0x38>
}
  101c85:	83 c4 1c             	add    $0x1c,%esp
  101c88:	31 c0                	xor    %eax,%eax
  101c8a:	5b                   	pop    %ebx
  101c8b:	5e                   	pop    %esi
  101c8c:	5f                   	pop    %edi
  101c8d:	5d                   	pop    %ebp
  101c8e:	c3                   	ret    
    panic("dirlookup not DIR");
  101c8f:	83 ec 0c             	sub    $0xc,%esp
  101c92:	68 99 5e 10 00       	push   $0x105e99
  101c97:	e8 74 eb ff ff       	call   100810 <panic>
  101c9c:	8d 74 26 00          	lea    0x0(%esi,%eiz,1),%esi

00101ca0 <namex>:
// Look up and return the inode for a path name.
// If parent != 0, return the inode for the parent and copy the final
// path element into name, which must have room for DIRSIZ bytes.
static struct inode*
namex(char *path, int nameiparent, char *name)
{
  101ca0:	55                   	push   %ebp
  101ca1:	57                   	push   %edi
  101ca2:	89 cf                	mov    %ecx,%edi
  101ca4:	56                   	push   %esi
  101ca5:	53                   	push   %ebx
  101ca6:	89 c3                	mov    %eax,%ebx
  101ca8:	83 ec 1c             	sub    $0x1c,%esp
  struct inode *ip, *next;

  if(*path == '/')
  101cab:	80 38 2f             	cmpb   $0x2f,(%eax)
{
  101cae:	89 54 24 08          	mov    %edx,0x8(%esp)
  if(*path == '/')
  101cb2:	0f 84 3b 01 00 00    	je     101df3 <namex+0x153>
    ip = iget(ROOTDEV, ROOTINO);
  else
    ip = idup(proc->cwd);
  101cb8:	65 a1 04 00 00 00    	mov    %gs:0x4,%eax
  acquire(&icache.lock);
  101cbe:	83 ec 0c             	sub    $0xc,%esp
    ip = idup(proc->cwd);
  101cc1:	8b 70 68             	mov    0x68(%eax),%esi
  acquire(&icache.lock);
  101cc4:	68 60 ca 10 00       	push   $0x10ca60
  101cc9:	e8 c2 1e 00 00       	call   103b90 <acquire>
  ip->ref++;
  101cce:	83 46 08 01          	addl   $0x1,0x8(%esi)
  release(&icache.lock);
  101cd2:	c7 04 24 60 ca 10 00 	movl   $0x10ca60,(%esp)
  101cd9:	e8 52 20 00 00       	call   103d30 <release>
  101cde:	83 c4 10             	add    $0x10,%esp
  101ce1:	eb 08                	jmp    101ceb <namex+0x4b>
  101ce3:	90                   	nop
  101ce4:	8d 74 26 00          	lea    0x0(%esi,%eiz,1),%esi
    path++;
  101ce8:	83 c3 01             	add    $0x1,%ebx
  while(*path == '/')
  101ceb:	0f b6 03             	movzbl (%ebx),%eax
  101cee:	3c 2f                	cmp    $0x2f,%al
  101cf0:	74 f6                	je     101ce8 <namex+0x48>
  if(*path == 0)
  101cf2:	84 c0                	test   %al,%al
  101cf4:	0f 84 c7 00 00 00    	je     101dc1 <namex+0x121>
  while(*path != '/' && *path != 0)
  101cfa:	0f b6 03             	movzbl (%ebx),%eax
  101cfd:	89 dd                	mov    %ebx,%ebp
  101cff:	84 c0                	test   %al,%al
  101d01:	0f 84 95 00 00 00    	je     101d9c <namex+0xfc>
  101d07:	3c 2f                	cmp    $0x2f,%al
  101d09:	75 09                	jne    101d14 <namex+0x74>
  101d0b:	e9 8c 00 00 00       	jmp    101d9c <namex+0xfc>
  101d10:	84 c0                	test   %al,%al
  101d12:	74 0b                	je     101d1f <namex+0x7f>
    path++;
  101d14:	83 c5 01             	add    $0x1,%ebp
  while(*path != '/' && *path != 0)
  101d17:	0f b6 45 00          	movzbl 0x0(%ebp),%eax
  101d1b:	3c 2f                	cmp    $0x2f,%al
  101d1d:	75 f1                	jne    101d10 <namex+0x70>
  101d1f:	89 e9                	mov    %ebp,%ecx
  101d21:	29 d9                	sub    %ebx,%ecx
  if(len >= DIRSIZ)
  101d23:	83 f9 0d             	cmp    $0xd,%ecx
  101d26:	7e 78                	jle    101da0 <namex+0x100>
    memmove(name, s, DIRSIZ);
  101d28:	83 ec 04             	sub    $0x4,%esp
  101d2b:	6a 0e                	push   $0xe
  101d2d:	53                   	push   %ebx
    path++;
  101d2e:	89 eb                	mov    %ebp,%ebx
    memmove(name, s, DIRSIZ);
  101d30:	57                   	push   %edi
  101d31:	e8 ca 20 00 00       	call   103e00 <memmove>
  101d36:	83 c4 10             	add    $0x10,%esp
  while(*path == '/')
  101d39:	80 7d 00 2f          	cmpb   $0x2f,0x0(%ebp)
  101d3d:	75 09                	jne    101d48 <namex+0xa8>
  101d3f:	90                   	nop
    path++;
  101d40:	83 c3 01             	add    $0x1,%ebx
  while(*path == '/')
  101d43:	80 3b 2f             	cmpb   $0x2f,(%ebx)
  101d46:	74 f8                	je     101d40 <namex+0xa0>

  while((path = skipelem(path, name)) != 0){
    ilock(ip);
  101d48:	83 ec 0c             	sub    $0xc,%esp
  101d4b:	56                   	push   %esi
  101d4c:	e8 cf f8 ff ff       	call   101620 <ilock>
    if(ip->type != T_DIR){
  101d51:	83 c4 10             	add    $0x10,%esp
  101d54:	66 83 7e 10 01       	cmpw   $0x1,0x10(%esi)
  101d59:	75 78                	jne    101dd3 <namex+0x133>
      iunlockput(ip);
      return 0;
    }
    if(nameiparent && *path == '\0'){
  101d5b:	8b 54 24 08          	mov    0x8(%esp),%edx
  101d5f:	85 d2                	test   %edx,%edx
  101d61:	74 09                	je     101d6c <namex+0xcc>
  101d63:	80 3b 00             	cmpb   $0x0,(%ebx)
  101d66:	0f 84 9d 00 00 00    	je     101e09 <namex+0x169>
      // Stop one level early.
      iunlock(ip);
      return ip;
    }
    if((next = dirlookup(ip, name, 0)) == 0){
  101d6c:	83 ec 04             	sub    $0x4,%esp
  101d6f:	6a 00                	push   $0x0
  101d71:	57                   	push   %edi
  101d72:	56                   	push   %esi
  101d73:	e8 18 fe ff ff       	call   101b90 <dirlookup>
  101d78:	83 c4 10             	add    $0x10,%esp
  101d7b:	85 c0                	test   %eax,%eax
  101d7d:	89 c5                	mov    %eax,%ebp
  101d7f:	74 52                	je     101dd3 <namex+0x133>
  iunlock(ip);
  101d81:	83 ec 0c             	sub    $0xc,%esp
  101d84:	56                   	push   %esi
  101d85:	e8 a6 f9 ff ff       	call   101730 <iunlock>
  iput(ip);
  101d8a:	89 34 24             	mov    %esi,(%esp)
  101d8d:	89 ee                	mov    %ebp,%esi
  101d8f:	e8 ec f9 ff ff       	call   101780 <iput>
  101d94:	83 c4 10             	add    $0x10,%esp
  101d97:	e9 4f ff ff ff       	jmp    101ceb <namex+0x4b>
  while(*path != '/' && *path != 0)
  101d9c:	31 c9                	xor    %ecx,%ecx
  101d9e:	66 90                	xchg   %ax,%ax
    memmove(name, s, len);
  101da0:	83 ec 04             	sub    $0x4,%esp
  101da3:	51                   	push   %ecx
  101da4:	89 4c 24 14          	mov    %ecx,0x14(%esp)
  101da8:	53                   	push   %ebx
    name[len] = 0;
  101da9:	89 eb                	mov    %ebp,%ebx
    memmove(name, s, len);
  101dab:	57                   	push   %edi
  101dac:	e8 4f 20 00 00       	call   103e00 <memmove>
    name[len] = 0;
  101db1:	8b 4c 24 1c          	mov    0x1c(%esp),%ecx
  101db5:	83 c4 10             	add    $0x10,%esp
  101db8:	c6 04 0f 00          	movb   $0x0,(%edi,%ecx,1)
  101dbc:	e9 78 ff ff ff       	jmp    101d39 <namex+0x99>
      return 0;
    }
    iunlockput(ip);
    ip = next;
  }
  if(nameiparent){
  101dc1:	8b 44 24 08          	mov    0x8(%esp),%eax
  101dc5:	85 c0                	test   %eax,%eax
  101dc7:	75 56                	jne    101e1f <namex+0x17f>
    iput(ip);
    return 0;
  }
  return ip;
}
  101dc9:	83 c4 1c             	add    $0x1c,%esp
  101dcc:	89 f0                	mov    %esi,%eax
  101dce:	5b                   	pop    %ebx
  101dcf:	5e                   	pop    %esi
  101dd0:	5f                   	pop    %edi
  101dd1:	5d                   	pop    %ebp
  101dd2:	c3                   	ret    
  iunlock(ip);
  101dd3:	83 ec 0c             	sub    $0xc,%esp
  101dd6:	56                   	push   %esi
  101dd7:	e8 54 f9 ff ff       	call   101730 <iunlock>
  iput(ip);
  101ddc:	89 34 24             	mov    %esi,(%esp)
      return 0;
  101ddf:	31 f6                	xor    %esi,%esi
  iput(ip);
  101de1:	e8 9a f9 ff ff       	call   101780 <iput>
      return 0;
  101de6:	83 c4 10             	add    $0x10,%esp
}
  101de9:	89 f0                	mov    %esi,%eax
  101deb:	83 c4 1c             	add    $0x1c,%esp
  101dee:	5b                   	pop    %ebx
  101def:	5e                   	pop    %esi
  101df0:	5f                   	pop    %edi
  101df1:	5d                   	pop    %ebp
  101df2:	c3                   	ret    
    ip = iget(ROOTDEV, ROOTINO);
  101df3:	ba 01 00 00 00       	mov    $0x1,%edx
  101df8:	b8 01 00 00 00       	mov    $0x1,%eax
  101dfd:	e8 0e f5 ff ff       	call   101310 <iget>
  101e02:	89 c6                	mov    %eax,%esi
  101e04:	e9 e2 fe ff ff       	jmp    101ceb <namex+0x4b>
      iunlock(ip);
  101e09:	83 ec 0c             	sub    $0xc,%esp
  101e0c:	56                   	push   %esi
  101e0d:	e8 1e f9 ff ff       	call   101730 <iunlock>
      return ip;
  101e12:	83 c4 10             	add    $0x10,%esp
}
  101e15:	89 f0                	mov    %esi,%eax
  101e17:	83 c4 1c             	add    $0x1c,%esp
  101e1a:	5b                   	pop    %ebx
  101e1b:	5e                   	pop    %esi
  101e1c:	5f                   	pop    %edi
  101e1d:	5d                   	pop    %ebp
  101e1e:	c3                   	ret    
    iput(ip);
  101e1f:	83 ec 0c             	sub    $0xc,%esp
  101e22:	56                   	push   %esi
    return 0;
  101e23:	31 f6                	xor    %esi,%esi
    iput(ip);
  101e25:	e8 56 f9 ff ff       	call   101780 <iput>
    return 0;
  101e2a:	83 c4 10             	add    $0x10,%esp
  101e2d:	eb 9a                	jmp    101dc9 <namex+0x129>
  101e2f:	90                   	nop

00101e30 <dirlink>:
{
  101e30:	55                   	push   %ebp
  101e31:	57                   	push   %edi
  101e32:	56                   	push   %esi
  101e33:	53                   	push   %ebx
  101e34:	83 ec 20             	sub    $0x20,%esp
  101e37:	8b 74 24 34          	mov    0x34(%esp),%esi
  101e3b:	8b 6c 24 38          	mov    0x38(%esp),%ebp
  if((ip = dirlookup(dp, name, 0)) != 0){
  101e3f:	6a 00                	push   $0x0
  101e41:	55                   	push   %ebp
  101e42:	56                   	push   %esi
  101e43:	e8 48 fd ff ff       	call   101b90 <dirlookup>
  101e48:	83 c4 10             	add    $0x10,%esp
  101e4b:	85 c0                	test   %eax,%eax
  101e4d:	75 67                	jne    101eb6 <dirlink+0x86>
  for(off = 0; off < dp->size; off += sizeof(de)){
  101e4f:	8b 5e 18             	mov    0x18(%esi),%ebx
  101e52:	89 e7                	mov    %esp,%edi
  101e54:	85 db                	test   %ebx,%ebx
  101e56:	74 29                	je     101e81 <dirlink+0x51>
  101e58:	31 db                	xor    %ebx,%ebx
  101e5a:	89 e7                	mov    %esp,%edi
  101e5c:	eb 0a                	jmp    101e68 <dirlink+0x38>
  101e5e:	66 90                	xchg   %ax,%ax
  101e60:	83 c3 10             	add    $0x10,%ebx
  101e63:	39 5e 18             	cmp    %ebx,0x18(%esi)
  101e66:	76 19                	jbe    101e81 <dirlink+0x51>
    if(readi(dp, (char*)&de, off, sizeof(de)) != sizeof(de))
  101e68:	6a 10                	push   $0x10
  101e6a:	53                   	push   %ebx
  101e6b:	57                   	push   %edi
  101e6c:	56                   	push   %esi
  101e6d:	e8 be fa ff ff       	call   101930 <readi>
  101e72:	83 c4 10             	add    $0x10,%esp
  101e75:	83 f8 10             	cmp    $0x10,%eax
  101e78:	75 4f                	jne    101ec9 <dirlink+0x99>
    if(de.inum == 0)
  101e7a:	66 83 3c 24 00       	cmpw   $0x0,(%esp)
  101e7f:	75 df                	jne    101e60 <dirlink+0x30>
  strncpy(de.name, name, DIRSIZ);
  101e81:	83 ec 04             	sub    $0x4,%esp
  101e84:	6a 0e                	push   $0xe
  101e86:	55                   	push   %ebp
  101e87:	8d 44 24 0e          	lea    0xe(%esp),%eax
  101e8b:	50                   	push   %eax
  101e8c:	e8 2f 20 00 00       	call   103ec0 <strncpy>
  de.inum = inum;
  101e91:	8b 44 24 48          	mov    0x48(%esp),%eax
  101e95:	66 89 44 24 10       	mov    %ax,0x10(%esp)
  if(writei(dp, (char*)&de, off, sizeof(de)) != sizeof(de))
  101e9a:	6a 10                	push   $0x10
  101e9c:	53                   	push   %ebx
  101e9d:	57                   	push   %edi
  101e9e:	56                   	push   %esi
  101e9f:	e8 8c fb ff ff       	call   101a30 <writei>
  101ea4:	83 c4 20             	add    $0x20,%esp
  101ea7:	83 f8 10             	cmp    $0x10,%eax
  101eaa:	75 2a                	jne    101ed6 <dirlink+0xa6>
  return 0;
  101eac:	31 c0                	xor    %eax,%eax
}
  101eae:	83 c4 1c             	add    $0x1c,%esp
  101eb1:	5b                   	pop    %ebx
  101eb2:	5e                   	pop    %esi
  101eb3:	5f                   	pop    %edi
  101eb4:	5d                   	pop    %ebp
  101eb5:	c3                   	ret    
    iput(ip);
  101eb6:	83 ec 0c             	sub    $0xc,%esp
  101eb9:	50                   	push   %eax
  101eba:	e8 c1 f8 ff ff       	call   101780 <iput>
    return -1;
  101ebf:	83 c4 10             	add    $0x10,%esp
  101ec2:	b8 ff ff ff ff       	mov    $0xffffffff,%eax
  101ec7:	eb e5                	jmp    101eae <dirlink+0x7e>
      panic("dirlink read");
  101ec9:	83 ec 0c             	sub    $0xc,%esp
  101ecc:	68 ab 5e 10 00       	push   $0x105eab
  101ed1:	e8 3a e9 ff ff       	call   100810 <panic>
    panic("dirlink");
  101ed6:	83 ec 0c             	sub    $0xc,%esp
  101ed9:	68 3a 64 10 00       	push   $0x10643a
  101ede:	e8 2d e9 ff ff       	call   100810 <panic>
  101ee3:	8d b6 00 00 00 00    	lea    0x0(%esi),%esi
  101ee9:	8d bc 27 00 00 00 00 	lea    0x0(%edi,%eiz,1),%edi

00101ef0 <namei>:

struct inode*
namei(char *path)
{
  101ef0:	83 ec 1c             	sub    $0x1c,%esp
  char name[DIRSIZ];
  return namex(path, 0, name);
  101ef3:	31 d2                	xor    %edx,%edx
  101ef5:	8b 44 24 20          	mov    0x20(%esp),%eax
  101ef9:	8d 4c 24 02          	lea    0x2(%esp),%ecx
  101efd:	e8 9e fd ff ff       	call   101ca0 <namex>
}
  101f02:	83 c4 1c             	add    $0x1c,%esp
  101f05:	c3                   	ret    
  101f06:	8d 76 00             	lea    0x0(%esi),%esi
  101f09:	8d bc 27 00 00 00 00 	lea    0x0(%edi,%eiz,1),%edi

00101f10 <nameiparent>:

struct inode*
nameiparent(char *path, char *name)
{
  return namex(path, 1, name);
  101f10:	8b 4c 24 08          	mov    0x8(%esp),%ecx
  101f14:	8b 44 24 04          	mov    0x4(%esp),%eax
  101f18:	ba 01 00 00 00       	mov    $0x1,%edx
  101f1d:	e9 7e fd ff ff       	jmp    101ca0 <namex>
  101f22:	66 90                	xchg   %ax,%ax
  101f24:	66 90                	xchg   %ax,%ax
  101f26:	66 90                	xchg   %ax,%ax
  101f28:	66 90                	xchg   %ax,%ax
  101f2a:	66 90                	xchg   %ax,%ax
  101f2c:	66 90                	xchg   %ax,%ax
  101f2e:	66 90                	xchg   %ax,%ax

00101f30 <idestart>:
}

// Start the request for b.  Caller must hold idelock.
static void
idestart(struct buf *b)
{
  101f30:	56                   	push   %esi
  101f31:	53                   	push   %ebx
  101f32:	83 ec 04             	sub    $0x4,%esp
  if(b == 0)
  101f35:	85 c0                	test   %eax,%eax
  101f37:	0f 84 97 00 00 00    	je     101fd4 <idestart+0xa4>
  101f3d:	89 c6                	mov    %eax,%esi
  asm volatile("in %1,%0" : "=a" (data) : "d" (port));
  101f3f:	ba f7 01 00 00       	mov    $0x1f7,%edx
  101f44:	8d 74 26 00          	lea    0x0(%esi,%eiz,1),%esi
  101f48:	ec                   	in     (%dx),%al
  while(((r = inb(0x1f7)) & (IDE_BSY|IDE_DRDY)) != IDE_DRDY) 
  101f49:	83 e0 c0             	and    $0xffffffc0,%eax
  101f4c:	3c 40                	cmp    $0x40,%al
  101f4e:	75 f8                	jne    101f48 <idestart+0x18>
  asm volatile("out %0,%1" : : "a" (data), "d" (port));
  101f50:	ba f6 03 00 00       	mov    $0x3f6,%edx
  101f55:	31 c0                	xor    %eax,%eax
  101f57:	ee                   	out    %al,(%dx)
  101f58:	ba f2 01 00 00       	mov    $0x1f2,%edx
  101f5d:	b8 01 00 00 00       	mov    $0x1,%eax
  101f62:	ee                   	out    %al,(%dx)
    panic("idestart");

  idewait(0);
  outb(0x3f6, 0);  // generate interrupt
  outb(0x1f2, 1);  // number of sectors
  outb(0x1f3, b->sector & 0xff);
  101f63:	8b 5e 08             	mov    0x8(%esi),%ebx
  101f66:	ba f3 01 00 00       	mov    $0x1f3,%edx
  101f6b:	89 d8                	mov    %ebx,%eax
  101f6d:	ee                   	out    %al,(%dx)
  outb(0x1f4, (b->sector >> 8) & 0xff);
  101f6e:	89 d8                	mov    %ebx,%eax
  101f70:	ba f4 01 00 00       	mov    $0x1f4,%edx
  101f75:	c1 e8 08             	shr    $0x8,%eax
  101f78:	ee                   	out    %al,(%dx)
  outb(0x1f5, (b->sector >> 16) & 0xff);
  101f79:	89 d8                	mov    %ebx,%eax
  101f7b:	ba f5 01 00 00       	mov    $0x1f5,%edx
  101f80:	c1 e8 10             	shr    $0x10,%eax
  101f83:	ee                   	out    %al,(%dx)
  outb(0x1f6, 0xe0 | ((b->dev&1)<<4) | ((b->sector>>24)&0x0f));
  101f84:	0f b6 46 04          	movzbl 0x4(%esi),%eax
  101f88:	c1 eb 18             	shr    $0x18,%ebx
  101f8b:	ba f6 01 00 00       	mov    $0x1f6,%edx
  101f90:	83 e3 0f             	and    $0xf,%ebx
  101f93:	c1 e0 04             	shl    $0x4,%eax
  101f96:	83 e0 10             	and    $0x10,%eax
  101f99:	09 d8                	or     %ebx,%eax
  101f9b:	83 c8 e0             	or     $0xffffffe0,%eax
  101f9e:	ee                   	out    %al,(%dx)
  if(b->flags & B_DIRTY){
  101f9f:	f6 06 04             	testb  $0x4,(%esi)
  101fa2:	ba f7 01 00 00       	mov    $0x1f7,%edx
  101fa7:	75 0f                	jne    101fb8 <idestart+0x88>
  101fa9:	b8 20 00 00 00       	mov    $0x20,%eax
  101fae:	ee                   	out    %al,(%dx)
    outb(0x1f7, IDE_CMD_WRITE);
    outsl(0x1f0, b->data, 512/4);
  } else {
    outb(0x1f7, IDE_CMD_READ);
  }
}
  101faf:	83 c4 04             	add    $0x4,%esp
  101fb2:	5b                   	pop    %ebx
  101fb3:	5e                   	pop    %esi
  101fb4:	c3                   	ret    
  101fb5:	8d 76 00             	lea    0x0(%esi),%esi
  101fb8:	b8 30 00 00 00       	mov    $0x30,%eax
  101fbd:	ee                   	out    %al,(%dx)
  asm volatile("cld; rep outsl" :
  101fbe:	b9 80 00 00 00       	mov    $0x80,%ecx
    outsl(0x1f0, b->data, 512/4);
  101fc3:	83 c6 18             	add    $0x18,%esi
  101fc6:	ba f0 01 00 00       	mov    $0x1f0,%edx
  101fcb:	fc                   	cld    
  101fcc:	f3 6f                	rep outsl %ds:(%esi),(%dx)
}
  101fce:	83 c4 04             	add    $0x4,%esp
  101fd1:	5b                   	pop    %ebx
  101fd2:	5e                   	pop    %esi
  101fd3:	c3                   	ret    
    panic("idestart");
  101fd4:	83 ec 0c             	sub    $0xc,%esp
  101fd7:	68 b8 5e 10 00       	push   $0x105eb8
  101fdc:	e8 2f e8 ff ff       	call   100810 <panic>
  101fe1:	eb 0d                	jmp    101ff0 <ideinit>
  101fe3:	90                   	nop
  101fe4:	90                   	nop
  101fe5:	90                   	nop
  101fe6:	90                   	nop
  101fe7:	90                   	nop
  101fe8:	90                   	nop
  101fe9:	90                   	nop
  101fea:	90                   	nop
  101feb:	90                   	nop
  101fec:	90                   	nop
  101fed:	90                   	nop
  101fee:	90                   	nop
  101fef:	90                   	nop

00101ff0 <ideinit>:
{
  101ff0:	83 ec 14             	sub    $0x14,%esp
  initlock(&idelock, "ide");
  101ff3:	68 c1 5e 10 00       	push   $0x105ec1
  101ff8:	68 00 a8 10 00       	push   $0x10a800
  101ffd:	e8 6e 1b 00 00       	call   103b70 <initlock>
  picenable(IRQ_IDE);
  102002:	c7 04 24 0e 00 00 00 	movl   $0xe,(%esp)
  102009:	e8 62 0b 00 00       	call   102b70 <picenable>
  ioapicenable(IRQ_IDE, ncpu - 1);
  10200e:	58                   	pop    %eax
  10200f:	a1 80 e0 10 00       	mov    0x10e080,%eax
  102014:	5a                   	pop    %edx
  102015:	83 e8 01             	sub    $0x1,%eax
  102018:	50                   	push   %eax
  102019:	6a 0e                	push   $0xe
  10201b:	e8 d0 02 00 00       	call   1022f0 <ioapicenable>
  102020:	83 c4 10             	add    $0x10,%esp
  asm volatile("in %1,%0" : "=a" (data) : "d" (port));
  102023:	ba f7 01 00 00       	mov    $0x1f7,%edx
  102028:	90                   	nop
  102029:	8d b4 26 00 00 00 00 	lea    0x0(%esi,%eiz,1),%esi
  102030:	ec                   	in     (%dx),%al
  while(((r = inb(0x1f7)) & (IDE_BSY|IDE_DRDY)) != IDE_DRDY) 
  102031:	83 e0 c0             	and    $0xffffffc0,%eax
  102034:	3c 40                	cmp    $0x40,%al
  102036:	75 f8                	jne    102030 <ideinit+0x40>
  asm volatile("out %0,%1" : : "a" (data), "d" (port));
  102038:	ba f6 01 00 00       	mov    $0x1f6,%edx
  10203d:	b8 f0 ff ff ff       	mov    $0xfffffff0,%eax
  102042:	ee                   	out    %al,(%dx)
  102043:	b9 e8 03 00 00       	mov    $0x3e8,%ecx
  asm volatile("in %1,%0" : "=a" (data) : "d" (port));
  102048:	ba f7 01 00 00       	mov    $0x1f7,%edx
  10204d:	eb 06                	jmp    102055 <ideinit+0x65>
  10204f:	90                   	nop
  for(i=0; i<1000; i++){
  102050:	83 e9 01             	sub    $0x1,%ecx
  102053:	74 0f                	je     102064 <ideinit+0x74>
  102055:	ec                   	in     (%dx),%al
    if(inb(0x1f7) != 0){
  102056:	84 c0                	test   %al,%al
  102058:	74 f6                	je     102050 <ideinit+0x60>
      havedisk1 = 1;
  10205a:	c7 05 e0 a7 10 00 01 	movl   $0x1,0x10a7e0
  102061:	00 00 00 
  asm volatile("out %0,%1" : : "a" (data), "d" (port));
  102064:	ba f6 01 00 00       	mov    $0x1f6,%edx
  102069:	b8 e0 ff ff ff       	mov    $0xffffffe0,%eax
  10206e:	ee                   	out    %al,(%dx)
}
  10206f:	83 c4 0c             	add    $0xc,%esp
  102072:	c3                   	ret    
  102073:	8d b6 00 00 00 00    	lea    0x0(%esi),%esi
  102079:	8d bc 27 00 00 00 00 	lea    0x0(%edi,%eiz,1),%edi

00102080 <ideintr>:

// Interrupt handler.
void
ideintr(void)
{
  102080:	57                   	push   %edi
  102081:	56                   	push   %esi
  102082:	53                   	push   %ebx
  struct buf *b;

  // Take first buffer off queue.
  acquire(&idelock);
  102083:	83 ec 0c             	sub    $0xc,%esp
  102086:	68 00 a8 10 00       	push   $0x10a800
  10208b:	e8 00 1b 00 00       	call   103b90 <acquire>
  if((b = idequeue) == 0){
  102090:	8b 1d e4 a7 10 00    	mov    0x10a7e4,%ebx
  102096:	83 c4 10             	add    $0x10,%esp
  102099:	85 db                	test   %ebx,%ebx
  10209b:	74 76                	je     102113 <ideintr+0x93>
    release(&idelock);
    cprintf("Spurious IDE interrupt.\n");
    return;
  }
  idequeue = b->qnext;
  10209d:	8b 43 14             	mov    0x14(%ebx),%eax
  1020a0:	a3 e4 a7 10 00       	mov    %eax,0x10a7e4

  // Read data if needed.
  if(!(b->flags & B_DIRTY) && idewait(1) >= 0)
  1020a5:	8b 33                	mov    (%ebx),%esi
  1020a7:	f7 c6 04 00 00 00    	test   $0x4,%esi
  1020ad:	74 39                	je     1020e8 <ideintr+0x68>
    insl(0x1f0, b->data, 512/4);
  
  // Wake process waiting for this buf.
  b->flags |= B_VALID;
  b->flags &= ~B_DIRTY;
  1020af:	83 e6 fb             	and    $0xfffffffb,%esi
  wakeup(b);
  1020b2:	83 ec 0c             	sub    $0xc,%esp
  b->flags &= ~B_DIRTY;
  1020b5:	83 ce 02             	or     $0x2,%esi
  1020b8:	89 33                	mov    %esi,(%ebx)
  wakeup(b);
  1020ba:	53                   	push   %ebx
  1020bb:	e8 90 17 00 00       	call   103850 <wakeup>
  
  // Start disk on next buf in queue.
  if(idequeue != 0)
  1020c0:	a1 e4 a7 10 00       	mov    0x10a7e4,%eax
  1020c5:	83 c4 10             	add    $0x10,%esp
  1020c8:	85 c0                	test   %eax,%eax
  1020ca:	74 05                	je     1020d1 <ideintr+0x51>
    idestart(idequeue);
  1020cc:	e8 5f fe ff ff       	call   101f30 <idestart>

  release(&idelock);
  1020d1:	83 ec 0c             	sub    $0xc,%esp
  1020d4:	68 00 a8 10 00       	push   $0x10a800
  1020d9:	e8 52 1c 00 00       	call   103d30 <release>
  1020de:	83 c4 10             	add    $0x10,%esp
}
  1020e1:	5b                   	pop    %ebx
  1020e2:	5e                   	pop    %esi
  1020e3:	5f                   	pop    %edi
  1020e4:	c3                   	ret    
  1020e5:	8d 76 00             	lea    0x0(%esi),%esi
  asm volatile("in %1,%0" : "=a" (data) : "d" (port));
  1020e8:	ba f7 01 00 00       	mov    $0x1f7,%edx
  1020ed:	8d 76 00             	lea    0x0(%esi),%esi
  1020f0:	ec                   	in     (%dx),%al
  while(((r = inb(0x1f7)) & (IDE_BSY|IDE_DRDY)) != IDE_DRDY) 
  1020f1:	89 c1                	mov    %eax,%ecx
  1020f3:	83 e1 c0             	and    $0xffffffc0,%ecx
  1020f6:	80 f9 40             	cmp    $0x40,%cl
  1020f9:	75 f5                	jne    1020f0 <ideintr+0x70>
  if(checkerr && (r & (IDE_DF|IDE_ERR)) != 0)
  1020fb:	a8 21                	test   $0x21,%al
  1020fd:	75 b0                	jne    1020af <ideintr+0x2f>
    insl(0x1f0, b->data, 512/4);
  1020ff:	8d 7b 18             	lea    0x18(%ebx),%edi
  asm volatile("cld; rep insl" :
  102102:	b9 80 00 00 00       	mov    $0x80,%ecx
  102107:	ba f0 01 00 00       	mov    $0x1f0,%edx
  10210c:	fc                   	cld    
  10210d:	f3 6d                	rep insl (%dx),%es:(%edi)
  10210f:	8b 33                	mov    (%ebx),%esi
  102111:	eb 9c                	jmp    1020af <ideintr+0x2f>
    release(&idelock);
  102113:	83 ec 0c             	sub    $0xc,%esp
  102116:	68 00 a8 10 00       	push   $0x10a800
  10211b:	e8 10 1c 00 00       	call   103d30 <release>
    cprintf("Spurious IDE interrupt.\n");
  102120:	c7 04 24 c5 5e 10 00 	movl   $0x105ec5,(%esp)
  102127:	e8 64 e5 ff ff       	call   100690 <cprintf>
    return;
  10212c:	83 c4 10             	add    $0x10,%esp
  10212f:	eb b0                	jmp    1020e1 <ideintr+0x61>
  102131:	eb 0d                	jmp    102140 <iderw>
  102133:	90                   	nop
  102134:	90                   	nop
  102135:	90                   	nop
  102136:	90                   	nop
  102137:	90                   	nop
  102138:	90                   	nop
  102139:	90                   	nop
  10213a:	90                   	nop
  10213b:	90                   	nop
  10213c:	90                   	nop
  10213d:	90                   	nop
  10213e:	90                   	nop
  10213f:	90                   	nop

00102140 <iderw>:
// Sync buf with disk. 
// If B_DIRTY is set, write buf to disk, clear B_DIRTY, set B_VALID.
// Else if B_VALID is not set, read buf from disk, set B_VALID.
void
iderw(struct buf *b)
{
  102140:	53                   	push   %ebx
  102141:	83 ec 08             	sub    $0x8,%esp
  102144:	8b 5c 24 10          	mov    0x10(%esp),%ebx
  struct buf **pp;

  if(!(b->flags & B_BUSY))
  102148:	8b 03                	mov    (%ebx),%eax
  10214a:	a8 01                	test   $0x1,%al
  10214c:	0f 84 aa 00 00 00    	je     1021fc <iderw+0xbc>
    panic("iderw: buf not busy");
  if((b->flags & (B_VALID|B_DIRTY)) == B_VALID)
  102152:	83 e0 06             	and    $0x6,%eax
  102155:	83 f8 02             	cmp    $0x2,%eax
  102158:	0f 84 b8 00 00 00    	je     102216 <iderw+0xd6>
    panic("iderw: nothing to do");
  if(b->dev != 0 && !havedisk1)
  10215e:	8b 53 04             	mov    0x4(%ebx),%edx
  102161:	85 d2                	test   %edx,%edx
  102163:	74 0d                	je     102172 <iderw+0x32>
  102165:	a1 e0 a7 10 00       	mov    0x10a7e0,%eax
  10216a:	85 c0                	test   %eax,%eax
  10216c:	0f 84 97 00 00 00    	je     102209 <iderw+0xc9>
    panic("idrw: ide disk 1 not present");

  acquire(&idelock);
  102172:	83 ec 0c             	sub    $0xc,%esp
  102175:	68 00 a8 10 00       	push   $0x10a800
  10217a:	e8 11 1a 00 00       	call   103b90 <acquire>

  // Append b to idequeue.
  b->qnext = 0;
  for(pp=&idequeue; *pp; pp=&(*pp)->qnext)
  10217f:	8b 15 e4 a7 10 00    	mov    0x10a7e4,%edx
  102185:	83 c4 10             	add    $0x10,%esp
  b->qnext = 0;
  102188:	c7 43 14 00 00 00 00 	movl   $0x0,0x14(%ebx)
  for(pp=&idequeue; *pp; pp=&(*pp)->qnext)
  10218f:	85 d2                	test   %edx,%edx
  102191:	75 07                	jne    10219a <iderw+0x5a>
  102193:	eb 57                	jmp    1021ec <iderw+0xac>
  102195:	8d 76 00             	lea    0x0(%esi),%esi
  102198:	89 c2                	mov    %eax,%edx
  10219a:	8b 42 14             	mov    0x14(%edx),%eax
  10219d:	85 c0                	test   %eax,%eax
  10219f:	75 f7                	jne    102198 <iderw+0x58>
  1021a1:	83 c2 14             	add    $0x14,%edx
    ;
  *pp = b;
  1021a4:	89 1a                	mov    %ebx,(%edx)
  
  // Start disk if necessary.
  if(idequeue == b)
  1021a6:	3b 1d e4 a7 10 00    	cmp    0x10a7e4,%ebx
  1021ac:	74 45                	je     1021f3 <iderw+0xb3>
    idestart(b);
  
  // Wait for request to finish.
  // Assuming will not sleep too long: ignore proc->killed.
  while((b->flags & (B_VALID|B_DIRTY)) != B_VALID)
  1021ae:	8b 03                	mov    (%ebx),%eax
  1021b0:	83 e0 06             	and    $0x6,%eax
  1021b3:	83 f8 02             	cmp    $0x2,%eax
  1021b6:	74 23                	je     1021db <iderw+0x9b>
  1021b8:	90                   	nop
  1021b9:	8d b4 26 00 00 00 00 	lea    0x0(%esi,%eiz,1),%esi
    sleep(b, &idelock);
  1021c0:	83 ec 08             	sub    $0x8,%esp
  1021c3:	68 00 a8 10 00       	push   $0x10a800
  1021c8:	53                   	push   %ebx
  1021c9:	e8 c2 15 00 00       	call   103790 <sleep>
  while((b->flags & (B_VALID|B_DIRTY)) != B_VALID)
  1021ce:	8b 03                	mov    (%ebx),%eax
  1021d0:	83 c4 10             	add    $0x10,%esp
  1021d3:	83 e0 06             	and    $0x6,%eax
  1021d6:	83 f8 02             	cmp    $0x2,%eax
  1021d9:	75 e5                	jne    1021c0 <iderw+0x80>

  release(&idelock);
  1021db:	c7 44 24 10 00 a8 10 	movl   $0x10a800,0x10(%esp)
  1021e2:	00 
}
  1021e3:	83 c4 08             	add    $0x8,%esp
  1021e6:	5b                   	pop    %ebx
  release(&idelock);
  1021e7:	e9 44 1b 00 00       	jmp    103d30 <release>
  for(pp=&idequeue; *pp; pp=&(*pp)->qnext)
  1021ec:	ba e4 a7 10 00       	mov    $0x10a7e4,%edx
  1021f1:	eb b1                	jmp    1021a4 <iderw+0x64>
    idestart(b);
  1021f3:	89 d8                	mov    %ebx,%eax
  1021f5:	e8 36 fd ff ff       	call   101f30 <idestart>
  1021fa:	eb b2                	jmp    1021ae <iderw+0x6e>
    panic("iderw: buf not busy");
  1021fc:	83 ec 0c             	sub    $0xc,%esp
  1021ff:	68 de 5e 10 00       	push   $0x105ede
  102204:	e8 07 e6 ff ff       	call   100810 <panic>
    panic("idrw: ide disk 1 not present");
  102209:	83 ec 0c             	sub    $0xc,%esp
  10220c:	68 07 5f 10 00       	push   $0x105f07
  102211:	e8 fa e5 ff ff       	call   100810 <panic>
    panic("iderw: nothing to do");
  102216:	83 ec 0c             	sub    $0xc,%esp
  102219:	68 f2 5e 10 00       	push   $0x105ef2
  10221e:	e8 ed e5 ff ff       	call   100810 <panic>
  102223:	66 90                	xchg   %ax,%ax
  102225:	66 90                	xchg   %ax,%ax
  102227:	66 90                	xchg   %ax,%ax
  102229:	66 90                	xchg   %ax,%ax
  10222b:	66 90                	xchg   %ax,%ax
  10222d:	66 90                	xchg   %ax,%ax
  10222f:	90                   	nop

00102230 <ioapicinit>:
void
ioapicinit(void)
{
  int i, id, maxintr;

  if(!ismp)
  102230:	a1 84 da 10 00       	mov    0x10da84,%eax
  102235:	85 c0                	test   %eax,%eax
  102237:	0f 84 a7 00 00 00    	je     1022e4 <ioapicinit+0xb4>
{
  10223d:	56                   	push   %esi
  10223e:	53                   	push   %ebx
  10223f:	83 ec 04             	sub    $0x4,%esp
    return;

  ioapic = (volatile struct ioapic*)IOAPIC;
  102242:	c7 05 34 da 10 00 00 	movl   $0xfec00000,0x10da34
  102249:	00 c0 fe 
  ioapic->reg = reg;
  10224c:	c7 05 00 00 c0 fe 01 	movl   $0x1,0xfec00000
  102253:	00 00 00 
  return ioapic->data;
  102256:	8b 15 34 da 10 00    	mov    0x10da34,%edx
  10225c:	8b 72 10             	mov    0x10(%edx),%esi
  ioapic->reg = reg;
  10225f:	c7 02 00 00 00 00    	movl   $0x0,(%edx)
  return ioapic->data;
  102265:	8b 0d 34 da 10 00    	mov    0x10da34,%ecx
  maxintr = (ioapicread(REG_VER) >> 16) & 0xFF;
  id = ioapicread(REG_ID) >> 24;
  if(id != ioapicid)
  10226b:	0f b6 15 80 da 10 00 	movzbl 0x10da80,%edx
  maxintr = (ioapicread(REG_VER) >> 16) & 0xFF;
  102272:	c1 ee 10             	shr    $0x10,%esi
  102275:	89 f0                	mov    %esi,%eax
  102277:	0f b6 f0             	movzbl %al,%esi
  return ioapic->data;
  10227a:	8b 41 10             	mov    0x10(%ecx),%eax
  id = ioapicread(REG_ID) >> 24;
  10227d:	c1 e8 18             	shr    $0x18,%eax
  if(id != ioapicid)
  102280:	39 d0                	cmp    %edx,%eax
  102282:	74 16                	je     10229a <ioapicinit+0x6a>
    cprintf("ioapicinit: id isn't equal to ioapicid; not a MP\n");
  102284:	83 ec 0c             	sub    $0xc,%esp
  102287:	68 24 5f 10 00       	push   $0x105f24
  10228c:	e8 ff e3 ff ff       	call   100690 <cprintf>
  102291:	8b 0d 34 da 10 00    	mov    0x10da34,%ecx
  102297:	83 c4 10             	add    $0x10,%esp
  10229a:	83 c6 21             	add    $0x21,%esi
{
  10229d:	ba 10 00 00 00       	mov    $0x10,%edx
  1022a2:	b8 20 00 00 00       	mov    $0x20,%eax
  1022a7:	89 f6                	mov    %esi,%esi
  1022a9:	8d bc 27 00 00 00 00 	lea    0x0(%edi,%eiz,1),%edi
  ioapic->reg = reg;
  1022b0:	89 11                	mov    %edx,(%ecx)
  ioapic->data = data;
  1022b2:	8b 0d 34 da 10 00    	mov    0x10da34,%ecx

  // Mark all interrupts edge-triggered, active high, disabled,
  // and not routed to any CPUs.
  for(i = 0; i <= maxintr; i++){
    ioapicwrite(REG_TABLE+2*i, INT_DISABLED | (T_IRQ0 + i));
  1022b8:	89 c3                	mov    %eax,%ebx
  1022ba:	81 cb 00 00 01 00    	or     $0x10000,%ebx
  1022c0:	83 c0 01             	add    $0x1,%eax
  ioapic->data = data;
  1022c3:	89 59 10             	mov    %ebx,0x10(%ecx)
  1022c6:	8d 5a 01             	lea    0x1(%edx),%ebx
  1022c9:	83 c2 02             	add    $0x2,%edx
  for(i = 0; i <= maxintr; i++){
  1022cc:	39 f0                	cmp    %esi,%eax
  ioapic->reg = reg;
  1022ce:	89 19                	mov    %ebx,(%ecx)
  ioapic->data = data;
  1022d0:	8b 0d 34 da 10 00    	mov    0x10da34,%ecx
  1022d6:	c7 41 10 00 00 00 00 	movl   $0x0,0x10(%ecx)
  for(i = 0; i <= maxintr; i++){
  1022dd:	75 d1                	jne    1022b0 <ioapicinit+0x80>
    ioapicwrite(REG_TABLE+2*i+1, 0);
  }
}
  1022df:	83 c4 04             	add    $0x4,%esp
  1022e2:	5b                   	pop    %ebx
  1022e3:	5e                   	pop    %esi
  1022e4:	f3 c3                	repz ret 
  1022e6:	8d 76 00             	lea    0x0(%esi),%esi
  1022e9:	8d bc 27 00 00 00 00 	lea    0x0(%edi,%eiz,1),%edi

001022f0 <ioapicenable>:

void
ioapicenable(int irq, int cpunum)
{
  if(!ismp)
  1022f0:	8b 15 84 da 10 00    	mov    0x10da84,%edx
{
  1022f6:	8b 44 24 04          	mov    0x4(%esp),%eax
  if(!ismp)
  1022fa:	85 d2                	test   %edx,%edx
  1022fc:	74 2c                	je     10232a <ioapicenable+0x3a>
  ioapic->reg = reg;
  1022fe:	8b 0d 34 da 10 00    	mov    0x10da34,%ecx
    return;

  // Mark interrupt edge-triggered, active high,
  // enabled, and routed to the given cpunum,
  // which happens to be that cpu's APIC ID.
  ioapicwrite(REG_TABLE+2*irq, T_IRQ0 + irq);
  102304:	8d 50 20             	lea    0x20(%eax),%edx
  102307:	8d 44 00 10          	lea    0x10(%eax,%eax,1),%eax
  ioapic->reg = reg;
  10230b:	89 01                	mov    %eax,(%ecx)
  ioapic->data = data;
  10230d:	8b 0d 34 da 10 00    	mov    0x10da34,%ecx
  ioapicwrite(REG_TABLE+2*irq+1, cpunum << 24);
  102313:	83 c0 01             	add    $0x1,%eax
  ioapic->data = data;
  102316:	89 51 10             	mov    %edx,0x10(%ecx)
  ioapicwrite(REG_TABLE+2*irq+1, cpunum << 24);
  102319:	8b 54 24 08          	mov    0x8(%esp),%edx
  ioapic->reg = reg;
  10231d:	89 01                	mov    %eax,(%ecx)
  ioapic->data = data;
  10231f:	a1 34 da 10 00       	mov    0x10da34,%eax
  ioapicwrite(REG_TABLE+2*irq+1, cpunum << 24);
  102324:	c1 e2 18             	shl    $0x18,%edx
  ioapic->data = data;
  102327:	89 50 10             	mov    %edx,0x10(%eax)
  10232a:	f3 c3                	repz ret 
  10232c:	66 90                	xchg   %ax,%ax
  10232e:	66 90                	xchg   %ax,%ax

00102330 <kfree>:
// which normally should have been returned by a
// call to kalloc(len).  (The exception is when
// initializing the allocator; see kinit above.)
void
kfree(char *v, int len)
{
  102330:	55                   	push   %ebp
  102331:	57                   	push   %edi
  102332:	56                   	push   %esi
  102333:	53                   	push   %ebx
  102334:	83 ec 0c             	sub    $0xc,%esp
  102337:	8b 7c 24 24          	mov    0x24(%esp),%edi
  10233b:	8b 5c 24 20          	mov    0x20(%esp),%ebx
  struct run *r, *rend, **rp, *p, *pend;

  if(len <= 0 || len % PAGE)
  10233f:	85 ff                	test   %edi,%edi
  102341:	0f 8e eb 00 00 00    	jle    102432 <kfree+0x102>
  102347:	f7 c7 ff 0f 00 00    	test   $0xfff,%edi
  10234d:	0f 85 df 00 00 00    	jne    102432 <kfree+0x102>
    panic("kfree");

  // Fill with junk to catch dangling refs.
  memset(v, 1, len);
  102353:	83 ec 04             	sub    $0x4,%esp

  acquire(&kmem.lock);
  p = (struct run*)v;
  pend = (struct run*)(v + len);
  102356:	8d 34 3b             	lea    (%ebx,%edi,1),%esi
  memset(v, 1, len);
  102359:	57                   	push   %edi
  10235a:	6a 01                	push   $0x1
  10235c:	53                   	push   %ebx
  10235d:	e8 1e 1a 00 00       	call   103d80 <memset>
  acquire(&kmem.lock);
  102362:	c7 04 24 40 da 10 00 	movl   $0x10da40,(%esp)
  102369:	e8 22 18 00 00       	call   103b90 <acquire>
  for(rp=&kmem.freelist; (r=*rp) != 0 && r <= pend; rp=&r->next){
  10236e:	a1 74 da 10 00       	mov    0x10da74,%eax
  102373:	83 c4 10             	add    $0x10,%esp
  102376:	85 c0                	test   %eax,%eax
  102378:	0f 84 a0 00 00 00    	je     10241e <kfree+0xee>
  10237e:	39 c6                	cmp    %eax,%esi
  102380:	0f 82 98 00 00 00    	jb     10241e <kfree+0xee>
    rend = (struct run*)((char*)r + r->len);
  102386:	8b 48 04             	mov    0x4(%eax),%ecx
    if(r <= p && p < rend)
  102389:	39 c3                	cmp    %eax,%ebx
    rend = (struct run*)((char*)r + r->len);
  10238b:	8d 14 08             	lea    (%eax,%ecx,1),%edx
    if(r <= p && p < rend)
  10238e:	72 08                	jb     102398 <kfree+0x68>
  102390:	39 d3                	cmp    %edx,%ebx
  102392:	0f 82 8d 00 00 00    	jb     102425 <kfree+0xf5>
      panic("freeing free page");
    if(rend == p){  // r before p: expand r to include p
  102398:	39 d3                	cmp    %edx,%ebx
  10239a:	74 54                	je     1023f0 <kfree+0xc0>
        r->len += r->next->len;
        r->next = r->next->next;
      }
      goto out;
    }
    if(pend == r){  // p before r: expand p to include, replace r
  10239c:	39 c6                	cmp    %eax,%esi
  10239e:	75 22                	jne    1023c2 <kfree+0x92>
  1023a0:	eb 69                	jmp    10240b <kfree+0xdb>
  1023a2:	8d b6 00 00 00 00    	lea    0x0(%esi),%esi
  for(rp=&kmem.freelist; (r=*rp) != 0 && r <= pend; rp=&r->next){
  1023a8:	39 c6                	cmp    %eax,%esi
  1023aa:	72 1e                	jb     1023ca <kfree+0x9a>
    rend = (struct run*)((char*)r + r->len);
  1023ac:	8b 48 04             	mov    0x4(%eax),%ecx
    if(r <= p && p < rend)
  1023af:	39 c3                	cmp    %eax,%ebx
    rend = (struct run*)((char*)r + r->len);
  1023b1:	8d 14 08             	lea    (%eax,%ecx,1),%edx
    if(r <= p && p < rend)
  1023b4:	72 04                	jb     1023ba <kfree+0x8a>
  1023b6:	39 d3                	cmp    %edx,%ebx
  1023b8:	72 6b                	jb     102425 <kfree+0xf5>
    if(rend == p){  // r before p: expand r to include p
  1023ba:	39 d3                	cmp    %edx,%ebx
  1023bc:	74 32                	je     1023f0 <kfree+0xc0>
    if(pend == r){  // p before r: expand p to include, replace r
  1023be:	39 c6                	cmp    %eax,%esi
  1023c0:	74 4e                	je     102410 <kfree+0xe0>
  for(rp=&kmem.freelist; (r=*rp) != 0 && r <= pend; rp=&r->next){
  1023c2:	89 c5                	mov    %eax,%ebp
  1023c4:	8b 00                	mov    (%eax),%eax
  1023c6:	85 c0                	test   %eax,%eax
  1023c8:	75 de                	jne    1023a8 <kfree+0x78>
      *rp = p;
      goto out;
    }
  }
  // Insert p before r in list.
  p->len = len;
  1023ca:	89 7b 04             	mov    %edi,0x4(%ebx)
  p->next = r;
  1023cd:	89 03                	mov    %eax,(%ebx)
  *rp = p;
  1023cf:	89 5d 00             	mov    %ebx,0x0(%ebp)

 out:
  release(&kmem.lock);
  1023d2:	c7 44 24 20 40 da 10 	movl   $0x10da40,0x20(%esp)
  1023d9:	00 
}
  1023da:	83 c4 0c             	add    $0xc,%esp
  1023dd:	5b                   	pop    %ebx
  1023de:	5e                   	pop    %esi
  1023df:	5f                   	pop    %edi
  1023e0:	5d                   	pop    %ebp
  release(&kmem.lock);
  1023e1:	e9 4a 19 00 00       	jmp    103d30 <release>
  1023e6:	8d 76 00             	lea    0x0(%esi),%esi
  1023e9:	8d bc 27 00 00 00 00 	lea    0x0(%edi,%eiz,1),%edi
      if(r->next && r->next == pend){  // r now next to r->next?
  1023f0:	8b 10                	mov    (%eax),%edx
      r->len += len;
  1023f2:	01 f9                	add    %edi,%ecx
  1023f4:	89 48 04             	mov    %ecx,0x4(%eax)
      if(r->next && r->next == pend){  // r now next to r->next?
  1023f7:	39 d6                	cmp    %edx,%esi
  1023f9:	75 d7                	jne    1023d2 <kfree+0xa2>
  1023fb:	85 d2                	test   %edx,%edx
  1023fd:	74 d3                	je     1023d2 <kfree+0xa2>
        r->len += r->next->len;
  1023ff:	03 4a 04             	add    0x4(%edx),%ecx
  102402:	89 48 04             	mov    %ecx,0x4(%eax)
        r->next = r->next->next;
  102405:	8b 12                	mov    (%edx),%edx
  102407:	89 10                	mov    %edx,(%eax)
  102409:	eb c7                	jmp    1023d2 <kfree+0xa2>
  for(rp=&kmem.freelist; (r=*rp) != 0 && r <= pend; rp=&r->next){
  10240b:	bd 74 da 10 00       	mov    $0x10da74,%ebp
      p->len = len + r->len;
  102410:	01 f9                	add    %edi,%ecx
  102412:	89 4b 04             	mov    %ecx,0x4(%ebx)
      p->next = r->next;
  102415:	8b 06                	mov    (%esi),%eax
  102417:	89 03                	mov    %eax,(%ebx)
      *rp = p;
  102419:	89 5d 00             	mov    %ebx,0x0(%ebp)
      goto out;
  10241c:	eb b4                	jmp    1023d2 <kfree+0xa2>
  for(rp=&kmem.freelist; (r=*rp) != 0 && r <= pend; rp=&r->next){
  10241e:	bd 74 da 10 00       	mov    $0x10da74,%ebp
  102423:	eb a5                	jmp    1023ca <kfree+0x9a>
      panic("freeing free page");
  102425:	83 ec 0c             	sub    $0xc,%esp
  102428:	68 5c 5f 10 00       	push   $0x105f5c
  10242d:	e8 de e3 ff ff       	call   100810 <panic>
    panic("kfree");
  102432:	83 ec 0c             	sub    $0xc,%esp
  102435:	68 56 5f 10 00       	push   $0x105f56
  10243a:	e8 d1 e3 ff ff       	call   100810 <panic>
  10243f:	90                   	nop

00102440 <kinit>:
{
  102440:	83 ec 14             	sub    $0x14,%esp
  initlock(&kmem.lock, "kmem");
  102443:	68 6e 5f 10 00       	push   $0x105f6e
  102448:	68 40 da 10 00       	push   $0x10da40
  10244d:	e8 1e 17 00 00       	call   103b70 <initlock>
  cprintf("mem = %d\n", len);
  102452:	58                   	pop    %eax
  102453:	5a                   	pop    %edx
  102454:	68 00 00 10 00       	push   $0x100000
  102459:	68 73 5f 10 00       	push   $0x105f73
  10245e:	e8 2d e2 ff ff       	call   100690 <cprintf>
  kfree(p, len);
  102463:	59                   	pop    %ecx
  102464:	58                   	pop    %eax
  p = (char*)(((uint)end + PAGE) & ~(PAGE-1));
  102465:	b8 24 18 11 00       	mov    $0x111824,%eax
  kfree(p, len);
  10246a:	68 00 00 10 00       	push   $0x100000
  p = (char*)(((uint)end + PAGE) & ~(PAGE-1));
  10246f:	25 00 f0 ff ff       	and    $0xfffff000,%eax
  kfree(p, len);
  102474:	50                   	push   %eax
  102475:	e8 b6 fe ff ff       	call   102330 <kfree>
}
  10247a:	83 c4 1c             	add    $0x1c,%esp
  10247d:	c3                   	ret    
  10247e:	66 90                	xchg   %ax,%ax

00102480 <kalloc>:
// Allocate n bytes of physical memory.
// Returns a kernel-segment pointer.
// Returns 0 if the memory cannot be allocated.
char*
kalloc(int n)
{
  102480:	56                   	push   %esi
  102481:	53                   	push   %ebx
  102482:	83 ec 04             	sub    $0x4,%esp
  102485:	8b 74 24 10          	mov    0x10(%esp),%esi
  char *p;
  struct run *r, **rp;

  if(n % PAGE || n <= 0)
  102489:	f7 c6 ff 0f 00 00    	test   $0xfff,%esi
  10248f:	0f 85 96 00 00 00    	jne    10252b <kalloc+0xab>
  102495:	85 f6                	test   %esi,%esi
  102497:	0f 8e 8e 00 00 00    	jle    10252b <kalloc+0xab>
    panic("kalloc");

  acquire(&kmem.lock);
  10249d:	83 ec 0c             	sub    $0xc,%esp
  1024a0:	68 40 da 10 00       	push   $0x10da40
  1024a5:	e8 e6 16 00 00       	call   103b90 <acquire>
  for(rp=&kmem.freelist; (r=*rp) != 0; rp=&r->next){
  1024aa:	8b 0d 74 da 10 00    	mov    0x10da74,%ecx
  1024b0:	83 c4 10             	add    $0x10,%esp
  1024b3:	85 c9                	test   %ecx,%ecx
  1024b5:	74 18                	je     1024cf <kalloc+0x4f>
    if(r->len >= n){
  1024b7:	8b 41 04             	mov    0x4(%ecx),%eax
  1024ba:	39 c6                	cmp    %eax,%esi
  1024bc:	7f 0b                	jg     1024c9 <kalloc+0x49>
  1024be:	eb 62                	jmp    102522 <kalloc+0xa2>
  1024c0:	8b 42 04             	mov    0x4(%edx),%eax
  1024c3:	39 c6                	cmp    %eax,%esi
  1024c5:	7e 31                	jle    1024f8 <kalloc+0x78>
  1024c7:	89 d1                	mov    %edx,%ecx
  for(rp=&kmem.freelist; (r=*rp) != 0; rp=&r->next){
  1024c9:	8b 11                	mov    (%ecx),%edx
  1024cb:	85 d2                	test   %edx,%edx
  1024cd:	75 f1                	jne    1024c0 <kalloc+0x40>
        *rp = r->next;
      release(&kmem.lock);
      return p;
    }
  }
  release(&kmem.lock);
  1024cf:	83 ec 0c             	sub    $0xc,%esp

  cprintf("kalloc: out of memory\n");
  return 0;
  1024d2:	31 f6                	xor    %esi,%esi
  release(&kmem.lock);
  1024d4:	68 40 da 10 00       	push   $0x10da40
  1024d9:	e8 52 18 00 00       	call   103d30 <release>
  cprintf("kalloc: out of memory\n");
  1024de:	c7 04 24 84 5f 10 00 	movl   $0x105f84,(%esp)
  1024e5:	e8 a6 e1 ff ff       	call   100690 <cprintf>
  return 0;
  1024ea:	83 c4 10             	add    $0x10,%esp
}
  1024ed:	89 f0                	mov    %esi,%eax
  1024ef:	83 c4 04             	add    $0x4,%esp
  1024f2:	5b                   	pop    %ebx
  1024f3:	5e                   	pop    %esi
  1024f4:	c3                   	ret    
  1024f5:	8d 76 00             	lea    0x0(%esi),%esi
  for(rp=&kmem.freelist; (r=*rp) != 0; rp=&r->next){
  1024f8:	89 cb                	mov    %ecx,%ebx
      r->len -= n;
  1024fa:	29 f0                	sub    %esi,%eax
      if(r->len == 0)
  1024fc:	85 c0                	test   %eax,%eax
      r->len -= n;
  1024fe:	89 42 04             	mov    %eax,0x4(%edx)
      p = (char*)r + r->len;
  102501:	8d 34 02             	lea    (%edx,%eax,1),%esi
      if(r->len == 0)
  102504:	75 04                	jne    10250a <kalloc+0x8a>
        *rp = r->next;
  102506:	8b 02                	mov    (%edx),%eax
  102508:	89 03                	mov    %eax,(%ebx)
      release(&kmem.lock);
  10250a:	83 ec 0c             	sub    $0xc,%esp
  10250d:	68 40 da 10 00       	push   $0x10da40
  102512:	e8 19 18 00 00       	call   103d30 <release>
      return p;
  102517:	83 c4 10             	add    $0x10,%esp
}
  10251a:	89 f0                	mov    %esi,%eax
  10251c:	83 c4 04             	add    $0x4,%esp
  10251f:	5b                   	pop    %ebx
  102520:	5e                   	pop    %esi
  102521:	c3                   	ret    
    if(r->len >= n){
  102522:	89 ca                	mov    %ecx,%edx
  for(rp=&kmem.freelist; (r=*rp) != 0; rp=&r->next){
  102524:	bb 74 da 10 00       	mov    $0x10da74,%ebx
  102529:	eb cf                	jmp    1024fa <kalloc+0x7a>
    panic("kalloc");
  10252b:	83 ec 0c             	sub    $0xc,%esp
  10252e:	68 7d 5f 10 00       	push   $0x105f7d
  102533:	e8 d8 e2 ff ff       	call   100810 <panic>
  102538:	66 90                	xchg   %ax,%ax
  10253a:	66 90                	xchg   %ax,%ax
  10253c:	66 90                	xchg   %ax,%ax
  10253e:	66 90                	xchg   %ax,%ax

00102540 <kbdgetc>:
  asm volatile("in %1,%0" : "=a" (data) : "d" (port));
  102540:	ba 64 00 00 00       	mov    $0x64,%edx
  102545:	ec                   	in     (%dx),%al
    normalmap, shiftmap, ctlmap, ctlmap
  };
  uint st, data, c;

  st = inb(KBSTATP);
  if((st & KBS_DIB) == 0)
  102546:	a8 01                	test   $0x1,%al
  102548:	0f 84 c2 00 00 00    	je     102610 <kbdgetc+0xd0>
  10254e:	ba 60 00 00 00       	mov    $0x60,%edx
  102553:	ec                   	in     (%dx),%al
    return -1;
  data = inb(KBDATAP);
  102554:	0f b6 d0             	movzbl %al,%edx

  if(data == 0xE0){
  102557:	81 fa e0 00 00 00    	cmp    $0xe0,%edx
  10255d:	0f 84 9d 00 00 00    	je     102600 <kbdgetc+0xc0>
    shift |= E0ESC;
    return 0;
  } else if(data & 0x80){
  102563:	84 c0                	test   %al,%al
  102565:	78 59                	js     1025c0 <kbdgetc+0x80>
{
  102567:	53                   	push   %ebx
    // Key released
    data = (shift & E0ESC ? data : data & 0x7F);
    shift &= ~(shiftcode[data] | E0ESC);
    return 0;
  } else if(shift & E0ESC){
  102568:	8b 1d 34 a8 10 00    	mov    0x10a834,%ebx
  10256e:	f6 c3 40             	test   $0x40,%bl
  102571:	74 09                	je     10257c <kbdgetc+0x3c>
    // Last character was an E0 escape; or with 0x80
    data |= 0x80;
  102573:	83 c8 80             	or     $0xffffff80,%eax
    shift &= ~E0ESC;
  102576:	83 e3 bf             	and    $0xffffffbf,%ebx
    data |= 0x80;
  102579:	0f b6 d0             	movzbl %al,%edx
  }

  shift |= shiftcode[data];
  10257c:	0f b6 8a c0 60 10 00 	movzbl 0x1060c0(%edx),%ecx
  shift ^= togglecode[data];
  102583:	0f b6 82 c0 5f 10 00 	movzbl 0x105fc0(%edx),%eax
  shift |= shiftcode[data];
  10258a:	09 d9                	or     %ebx,%ecx
  shift ^= togglecode[data];
  10258c:	31 c1                	xor    %eax,%ecx
  c = charcode[shift & (CTL | SHIFT)][data];
  10258e:	89 c8                	mov    %ecx,%eax
  shift ^= togglecode[data];
  102590:	89 0d 34 a8 10 00    	mov    %ecx,0x10a834
  c = charcode[shift & (CTL | SHIFT)][data];
  102596:	83 e0 03             	and    $0x3,%eax
  if(shift & CAPSLOCK){
  102599:	83 e1 08             	and    $0x8,%ecx
  c = charcode[shift & (CTL | SHIFT)][data];
  10259c:	8b 04 85 a0 5f 10 00 	mov    0x105fa0(,%eax,4),%eax
  1025a3:	0f b6 04 10          	movzbl (%eax,%edx,1),%eax
  if(shift & CAPSLOCK){
  1025a7:	74 0b                	je     1025b4 <kbdgetc+0x74>
    if('a' <= c && c <= 'z')
  1025a9:	8d 50 9f             	lea    -0x61(%eax),%edx
  1025ac:	83 fa 19             	cmp    $0x19,%edx
  1025af:	77 3f                	ja     1025f0 <kbdgetc+0xb0>
      c += 'A' - 'a';
  1025b1:	83 e8 20             	sub    $0x20,%eax
    else if('A' <= c && c <= 'Z')
      c += 'a' - 'A';
  }
  return c;
}
  1025b4:	5b                   	pop    %ebx
  1025b5:	c3                   	ret    
  1025b6:	8d 76 00             	lea    0x0(%esi),%esi
  1025b9:	8d bc 27 00 00 00 00 	lea    0x0(%edi,%eiz,1),%edi
    data = (shift & E0ESC ? data : data & 0x7F);
  1025c0:	8b 0d 34 a8 10 00    	mov    0x10a834,%ecx
  1025c6:	83 e0 7f             	and    $0x7f,%eax
  1025c9:	f6 c1 40             	test   $0x40,%cl
  1025cc:	0f 44 d0             	cmove  %eax,%edx
    shift &= ~(shiftcode[data] | E0ESC);
  1025cf:	0f b6 82 c0 60 10 00 	movzbl 0x1060c0(%edx),%eax
  1025d6:	83 c8 40             	or     $0x40,%eax
  1025d9:	0f b6 c0             	movzbl %al,%eax
  1025dc:	f7 d0                	not    %eax
  1025de:	21 c8                	and    %ecx,%eax
  1025e0:	a3 34 a8 10 00       	mov    %eax,0x10a834
    return 0;
  1025e5:	31 c0                	xor    %eax,%eax
  1025e7:	c3                   	ret    
  1025e8:	90                   	nop
  1025e9:	8d b4 26 00 00 00 00 	lea    0x0(%esi,%eiz,1),%esi
    else if('A' <= c && c <= 'Z')
  1025f0:	8d 48 bf             	lea    -0x41(%eax),%ecx
      c += 'a' - 'A';
  1025f3:	8d 50 20             	lea    0x20(%eax),%edx
}
  1025f6:	5b                   	pop    %ebx
      c += 'a' - 'A';
  1025f7:	83 f9 19             	cmp    $0x19,%ecx
  1025fa:	0f 46 c2             	cmovbe %edx,%eax
}
  1025fd:	c3                   	ret    
  1025fe:	66 90                	xchg   %ax,%ax
    shift |= E0ESC;
  102600:	83 0d 34 a8 10 00 40 	orl    $0x40,0x10a834
    return 0;
  102607:	31 c0                	xor    %eax,%eax
  102609:	c3                   	ret    
  10260a:	8d b6 00 00 00 00    	lea    0x0(%esi),%esi
    return -1;
  102610:	b8 ff ff ff ff       	mov    $0xffffffff,%eax
  102615:	c3                   	ret    
  102616:	8d 76 00             	lea    0x0(%esi),%esi
  102619:	8d bc 27 00 00 00 00 	lea    0x0(%edi,%eiz,1),%edi

00102620 <kbdintr>:

void
kbdintr(void)
{
  102620:	83 ec 18             	sub    $0x18,%esp
  consoleintr(kbdgetc);
  102623:	68 40 25 10 00       	push   $0x102540
  102628:	e8 63 e2 ff ff       	call   100890 <consoleintr>
}
  10262d:	83 c4 1c             	add    $0x1c,%esp
  102630:	c3                   	ret    
  102631:	66 90                	xchg   %ax,%ax
  102633:	66 90                	xchg   %ax,%ax
  102635:	66 90                	xchg   %ax,%ax
  102637:	66 90                	xchg   %ax,%ax
  102639:	66 90                	xchg   %ax,%ax
  10263b:	66 90                	xchg   %ax,%ax
  10263d:	66 90                	xchg   %ax,%ax
  10263f:	90                   	nop

00102640 <lapicinit>:
}

void
lapicinit(int c)
{
  if(!lapic) 
  102640:	a1 78 da 10 00       	mov    0x10da78,%eax
  102645:	85 c0                	test   %eax,%eax
  102647:	0f 84 c3 00 00 00    	je     102710 <lapicinit+0xd0>
  lapic[index] = value;
  10264d:	c7 80 f0 00 00 00 3f 	movl   $0x13f,0xf0(%eax)
  102654:	01 00 00 
  lapic[ID];  // wait for write to finish, by reading
  102657:	8b 50 20             	mov    0x20(%eax),%edx
  lapic[index] = value;
  10265a:	c7 80 e0 03 00 00 0b 	movl   $0xb,0x3e0(%eax)
  102661:	00 00 00 
  lapic[ID];  // wait for write to finish, by reading
  102664:	8b 50 20             	mov    0x20(%eax),%edx
  lapic[index] = value;
  102667:	c7 80 20 03 00 00 20 	movl   $0x20020,0x320(%eax)
  10266e:	00 02 00 
  lapic[ID];  // wait for write to finish, by reading
  102671:	8b 50 20             	mov    0x20(%eax),%edx
  lapic[index] = value;
  102674:	c7 80 80 03 00 00 80 	movl   $0x989680,0x380(%eax)
  10267b:	96 98 00 
  lapic[ID];  // wait for write to finish, by reading
  10267e:	8b 50 20             	mov    0x20(%eax),%edx
  lapic[index] = value;
  102681:	c7 80 50 03 00 00 00 	movl   $0x10000,0x350(%eax)
  102688:	00 01 00 
  lapic[ID];  // wait for write to finish, by reading
  10268b:	8b 50 20             	mov    0x20(%eax),%edx
  lapic[index] = value;
  10268e:	c7 80 60 03 00 00 00 	movl   $0x10000,0x360(%eax)
  102695:	00 01 00 
  lapic[ID];  // wait for write to finish, by reading
  102698:	8b 50 20             	mov    0x20(%eax),%edx
  lapicw(LINT0, MASKED);
  lapicw(LINT1, MASKED);

  // Disable performance counter overflow interrupts
  // on machines that provide that interrupt entry.
  if(((lapic[VER]>>16) & 0xFF) >= 4)
  10269b:	8b 50 30             	mov    0x30(%eax),%edx
  10269e:	c1 ea 10             	shr    $0x10,%edx
  1026a1:	80 fa 03             	cmp    $0x3,%dl
  1026a4:	77 72                	ja     102718 <lapicinit+0xd8>
  lapic[index] = value;
  1026a6:	c7 80 70 03 00 00 33 	movl   $0x33,0x370(%eax)
  1026ad:	00 00 00 
  lapic[ID];  // wait for write to finish, by reading
  1026b0:	8b 50 20             	mov    0x20(%eax),%edx
  lapic[index] = value;
  1026b3:	c7 80 80 02 00 00 00 	movl   $0x0,0x280(%eax)
  1026ba:	00 00 00 
  lapic[ID];  // wait for write to finish, by reading
  1026bd:	8b 50 20             	mov    0x20(%eax),%edx
  lapic[index] = value;
  1026c0:	c7 80 80 02 00 00 00 	movl   $0x0,0x280(%eax)
  1026c7:	00 00 00 
  lapic[ID];  // wait for write to finish, by reading
  1026ca:	8b 50 20             	mov    0x20(%eax),%edx
  lapic[index] = value;
  1026cd:	c7 80 b0 00 00 00 00 	movl   $0x0,0xb0(%eax)
  1026d4:	00 00 00 
  lapic[ID];  // wait for write to finish, by reading
  1026d7:	8b 50 20             	mov    0x20(%eax),%edx
  lapic[index] = value;
  1026da:	c7 80 10 03 00 00 00 	movl   $0x0,0x310(%eax)
  1026e1:	00 00 00 
  lapic[ID];  // wait for write to finish, by reading
  1026e4:	8b 50 20             	mov    0x20(%eax),%edx
  lapic[index] = value;
  1026e7:	c7 80 00 03 00 00 00 	movl   $0x88500,0x300(%eax)
  1026ee:	85 08 00 
  lapic[ID];  // wait for write to finish, by reading
  1026f1:	8b 50 20             	mov    0x20(%eax),%edx
  1026f4:	8d 74 26 00          	lea    0x0(%esi,%eiz,1),%esi
  lapicw(EOI, 0);

  // Send an Init Level De-Assert to synchronise arbitration ID's.
  lapicw(ICRHI, 0);
  lapicw(ICRLO, BCAST | INIT | LEVEL);
  while(lapic[ICRLO] & DELIVS)
  1026f8:	8b 90 00 03 00 00    	mov    0x300(%eax),%edx
  1026fe:	80 e6 10             	and    $0x10,%dh
  102701:	75 f5                	jne    1026f8 <lapicinit+0xb8>
  lapic[index] = value;
  102703:	c7 80 80 00 00 00 00 	movl   $0x0,0x80(%eax)
  10270a:	00 00 00 
  lapic[ID];  // wait for write to finish, by reading
  10270d:	8b 40 20             	mov    0x20(%eax),%eax
  102710:	f3 c3                	repz ret 
  102712:	8d b6 00 00 00 00    	lea    0x0(%esi),%esi
  lapic[index] = value;
  102718:	c7 80 40 03 00 00 00 	movl   $0x10000,0x340(%eax)
  10271f:	00 01 00 
  lapic[ID];  // wait for write to finish, by reading
  102722:	8b 50 20             	mov    0x20(%eax),%edx
  102725:	e9 7c ff ff ff       	jmp    1026a6 <lapicinit+0x66>
  10272a:	8d b6 00 00 00 00    	lea    0x0(%esi),%esi

00102730 <cpunum>:
  asm volatile("pushfl; popl %0" : "=r" (eflags));
  102730:	9c                   	pushf  
  102731:	58                   	pop    %eax
  // Cannot call cpu when interrupts are enabled:
  // result not guaranteed to last long enough to be used!
  // Would prefer to panic but even printing is chancy here:
  // almost everything, including cprintf and panic, calls cpu,
  // often indirectly through acquire and release.
  if(readeflags()&FL_IF){
  102732:	f6 c4 02             	test   $0x2,%ah
  102735:	74 12                	je     102749 <cpunum+0x19>
    static int n;
    if(n++ == 0)
  102737:	a1 38 a8 10 00       	mov    0x10a838,%eax
  10273c:	8d 50 01             	lea    0x1(%eax),%edx
  10273f:	85 c0                	test   %eax,%eax
  102741:	89 15 38 a8 10 00    	mov    %edx,0x10a838
  102747:	74 17                	je     102760 <cpunum+0x30>
      cprintf("cpu called from %x with interrupts enabled\n",
        __builtin_return_address(0));
  }

  if(lapic)
  102749:	a1 78 da 10 00       	mov    0x10da78,%eax
  10274e:	85 c0                	test   %eax,%eax
  102750:	74 3e                	je     102790 <cpunum+0x60>
    return lapic[ID]>>24;
  102752:	8b 40 20             	mov    0x20(%eax),%eax
  102755:	c1 e8 18             	shr    $0x18,%eax
  102758:	c3                   	ret    
  102759:	8d b4 26 00 00 00 00 	lea    0x0(%esi,%eiz,1),%esi
{
  102760:	83 ec 14             	sub    $0x14,%esp
      cprintf("cpu called from %x with interrupts enabled\n",
  102763:	ff 74 24 14          	pushl  0x14(%esp)
  102767:	68 c0 61 10 00       	push   $0x1061c0
  10276c:	e8 1f df ff ff       	call   100690 <cprintf>
  if(lapic)
  102771:	a1 78 da 10 00       	mov    0x10da78,%eax
      cprintf("cpu called from %x with interrupts enabled\n",
  102776:	83 c4 10             	add    $0x10,%esp
  if(lapic)
  102779:	85 c0                	test   %eax,%eax
  10277b:	74 1b                	je     102798 <cpunum+0x68>
    return lapic[ID]>>24;
  10277d:	8b 40 20             	mov    0x20(%eax),%eax
  102780:	c1 e8 18             	shr    $0x18,%eax
  return 0;
}
  102783:	83 c4 0c             	add    $0xc,%esp
  102786:	c3                   	ret    
  102787:	89 f6                	mov    %esi,%esi
  102789:	8d bc 27 00 00 00 00 	lea    0x0(%edi,%eiz,1),%edi
  102790:	31 c0                	xor    %eax,%eax
  102792:	c3                   	ret    
  102793:	90                   	nop
  102794:	8d 74 26 00          	lea    0x0(%esi,%eiz,1),%esi
  102798:	31 c0                	xor    %eax,%eax
  10279a:	eb e7                	jmp    102783 <cpunum+0x53>
  10279c:	8d 74 26 00          	lea    0x0(%esi,%eiz,1),%esi

001027a0 <lapiceoi>:

// Acknowledge interrupt.
void
lapiceoi(void)
{
  if(lapic)
  1027a0:	a1 78 da 10 00       	mov    0x10da78,%eax
  1027a5:	85 c0                	test   %eax,%eax
  1027a7:	74 0d                	je     1027b6 <lapiceoi+0x16>
  lapic[index] = value;
  1027a9:	c7 80 b0 00 00 00 00 	movl   $0x0,0xb0(%eax)
  1027b0:	00 00 00 
  lapic[ID];  // wait for write to finish, by reading
  1027b3:	8b 40 20             	mov    0x20(%eax),%eax
  1027b6:	f3 c3                	repz ret 
  1027b8:	90                   	nop
  1027b9:	8d b4 26 00 00 00 00 	lea    0x0(%esi,%eiz,1),%esi

001027c0 <microdelay>:

// Spin for a given number of microseconds.
// On real hardware would want to tune this dynamically.
void
microdelay(int us)
{
  1027c0:	f3 c3                	repz ret 
  1027c2:	8d b4 26 00 00 00 00 	lea    0x0(%esi,%eiz,1),%esi
  1027c9:	8d bc 27 00 00 00 00 	lea    0x0(%edi,%eiz,1),%edi

001027d0 <lapicstartap>:

// Start additional processor running bootstrap code at addr.
// See Appendix B of MultiProcessor Specification.
void
lapicstartap(uchar apicid, uint addr)
{
  1027d0:	53                   	push   %ebx
  asm volatile("out %0,%1" : : "a" (data), "d" (port));
  1027d1:	ba 70 00 00 00       	mov    $0x70,%edx
  1027d6:	8b 5c 24 08          	mov    0x8(%esp),%ebx
  1027da:	8b 4c 24 0c          	mov    0xc(%esp),%ecx
  1027de:	b8 0f 00 00 00       	mov    $0xf,%eax
  1027e3:	ee                   	out    %al,(%dx)
  1027e4:	ba 71 00 00 00       	mov    $0x71,%edx
  1027e9:	b8 0a 00 00 00       	mov    $0xa,%eax
  1027ee:	ee                   	out    %al,(%dx)
  // and the warm reset vector (DWORD based at 40:67) to point at
  // the AP startup code prior to the [universal startup algorithm]."
  outb(IO_RTC, 0xF);  // offset 0xF is shutdown code
  outb(IO_RTC+1, 0x0A);
  wrv = (ushort*)(0x40<<4 | 0x67);  // Warm reset vector
  wrv[0] = 0;
  1027ef:	31 c0                	xor    %eax,%eax
  wrv[1] = addr >> 4;

  // "Universal startup algorithm."
  // Send INIT (level-triggered) interrupt to reset other CPU.
  lapicw(ICRHI, apicid<<24);
  1027f1:	c1 e3 18             	shl    $0x18,%ebx
  wrv[0] = 0;
  1027f4:	66 a3 67 04 00 00    	mov    %ax,0x467
  wrv[1] = addr >> 4;
  1027fa:	89 c8                	mov    %ecx,%eax
  // when it is in the halted state due to an INIT.  So the second
  // should be ignored, but it is part of the official Intel algorithm.
  // Bochs complains about the second one.  Too bad for Bochs.
  for(i = 0; i < 2; i++){
    lapicw(ICRHI, apicid<<24);
    lapicw(ICRLO, STARTUP | (addr>>12));
  1027fc:	c1 e9 0c             	shr    $0xc,%ecx
  wrv[1] = addr >> 4;
  1027ff:	c1 e8 04             	shr    $0x4,%eax
  lapicw(ICRHI, apicid<<24);
  102802:	89 da                	mov    %ebx,%edx
    lapicw(ICRLO, STARTUP | (addr>>12));
  102804:	80 cd 06             	or     $0x6,%ch
  wrv[1] = addr >> 4;
  102807:	66 a3 69 04 00 00    	mov    %ax,0x469
  lapic[index] = value;
  10280d:	a1 78 da 10 00       	mov    0x10da78,%eax
  102812:	89 98 10 03 00 00    	mov    %ebx,0x310(%eax)
  lapic[ID];  // wait for write to finish, by reading
  102818:	8b 58 20             	mov    0x20(%eax),%ebx
  lapic[index] = value;
  10281b:	c7 80 00 03 00 00 00 	movl   $0xc500,0x300(%eax)
  102822:	c5 00 00 
  lapic[ID];  // wait for write to finish, by reading
  102825:	8b 58 20             	mov    0x20(%eax),%ebx
  lapic[index] = value;
  102828:	c7 80 00 03 00 00 00 	movl   $0x8500,0x300(%eax)
  10282f:	85 00 00 
  lapic[ID];  // wait for write to finish, by reading
  102832:	8b 58 20             	mov    0x20(%eax),%ebx
  lapic[index] = value;
  102835:	89 90 10 03 00 00    	mov    %edx,0x310(%eax)
  lapic[ID];  // wait for write to finish, by reading
  10283b:	8b 58 20             	mov    0x20(%eax),%ebx
  lapic[index] = value;
  10283e:	89 88 00 03 00 00    	mov    %ecx,0x300(%eax)
  lapic[ID];  // wait for write to finish, by reading
  102844:	8b 58 20             	mov    0x20(%eax),%ebx
  lapic[index] = value;
  102847:	89 90 10 03 00 00    	mov    %edx,0x310(%eax)
  lapic[ID];  // wait for write to finish, by reading
  10284d:	8b 50 20             	mov    0x20(%eax),%edx
  lapic[index] = value;
  102850:	89 88 00 03 00 00    	mov    %ecx,0x300(%eax)
  lapic[ID];  // wait for write to finish, by reading
  102856:	8b 40 20             	mov    0x20(%eax),%eax
    microdelay(200);
  }
}
  102859:	5b                   	pop    %ebx
  10285a:	c3                   	ret    
  10285b:	66 90                	xchg   %ax,%ax
  10285d:	66 90                	xchg   %ax,%ax
  10285f:	90                   	nop

00102860 <mpmain>:
{
  102860:	53                   	push   %ebx
  102861:	83 ec 08             	sub    $0x8,%esp
  if(cpunum() != mpbcpu())
  102864:	e8 c7 fe ff ff       	call   102730 <cpunum>
  102869:	89 c3                	mov    %eax,%ebx
  10286b:	e8 d0 00 00 00       	call   102940 <mpbcpu>
  102870:	39 c3                	cmp    %eax,%ebx
  102872:	74 11                	je     102885 <mpmain+0x25>
    lapicinit(cpunum());
  102874:	e8 b7 fe ff ff       	call   102730 <cpunum>
  102879:	83 ec 0c             	sub    $0xc,%esp
  10287c:	50                   	push   %eax
  10287d:	e8 be fd ff ff       	call   102640 <lapicinit>
  102882:	83 c4 10             	add    $0x10,%esp
  ksegment();
  102885:	e8 46 09 00 00       	call   1031d0 <ksegment>
  cprintf("cpu%d: mpmain\n", cpu->id);
  10288a:	65 a1 00 00 00 00    	mov    %gs:0x0,%eax
  102890:	83 ec 08             	sub    $0x8,%esp
  102893:	0f b6 00             	movzbl (%eax),%eax
  102896:	50                   	push   %eax
  102897:	68 ec 61 10 00       	push   $0x1061ec
  10289c:	e8 ef dd ff ff       	call   100690 <cprintf>
  idtinit();
  1028a1:	e8 8a 26 00 00       	call   104f30 <idtinit>
  xchg(&cpu->booted, 1);
  1028a6:	65 8b 15 00 00 00 00 	mov    %gs:0x0,%edx
  asm volatile("lock; xchgl %0, %1" :
  1028ad:	b8 01 00 00 00       	mov    $0x1,%eax
  1028b2:	f0 87 82 a8 00 00 00 	lock xchg %eax,0xa8(%edx)
  cprintf("cpu%d: scheduling\n", cpu->id);
  1028b9:	58                   	pop    %eax
  1028ba:	65 a1 00 00 00 00    	mov    %gs:0x0,%eax
  1028c0:	5a                   	pop    %edx
  1028c1:	0f b6 00             	movzbl (%eax),%eax
  1028c4:	50                   	push   %eax
  1028c5:	68 fb 61 10 00       	push   $0x1061fb
  1028ca:	e8 c1 dd ff ff       	call   100690 <cprintf>
  scheduler();
  1028cf:	e8 4c 0d 00 00       	call   103620 <scheduler>
  1028d4:	66 90                	xchg   %ax,%ax
  1028d6:	66 90                	xchg   %ax,%ax
  1028d8:	66 90                	xchg   %ax,%ax
  1028da:	66 90                	xchg   %ax,%ax
  1028dc:	66 90                	xchg   %ax,%ax
  1028de:	66 90                	xchg   %ax,%ax

001028e0 <mpsearch1>:
}

// Look for an MP structure in the len bytes at addr.
static struct mp*
mpsearch1(uchar *addr, int len)
{
  1028e0:	57                   	push   %edi
  1028e1:	56                   	push   %esi
  1028e2:	89 c6                	mov    %eax,%esi
  1028e4:	53                   	push   %ebx
  uchar *e, *p;

  e = addr+len;
  1028e5:	8d 1c 10             	lea    (%eax,%edx,1),%ebx
  for(p = addr; p < e; p += sizeof(struct mp))
  1028e8:	39 d8                	cmp    %ebx,%eax
  1028ea:	73 3a                	jae    102926 <mpsearch1+0x46>
  1028ec:	8d 74 26 00          	lea    0x0(%esi,%eiz,1),%esi
    if(memcmp(p, "_MP_", 4) == 0 && sum(p, sizeof(struct mp)) == 0)
  1028f0:	83 ec 04             	sub    $0x4,%esp
  1028f3:	8d 7e 10             	lea    0x10(%esi),%edi
  1028f6:	6a 04                	push   $0x4
  1028f8:	68 35 62 10 00       	push   $0x106235
  1028fd:	56                   	push   %esi
  1028fe:	e8 9d 14 00 00       	call   103da0 <memcmp>
  102903:	83 c4 10             	add    $0x10,%esp
  102906:	85 c0                	test   %eax,%eax
  102908:	75 16                	jne    102920 <mpsearch1+0x40>
  10290a:	8d 7e 10             	lea    0x10(%esi),%edi
  10290d:	89 f2                	mov    %esi,%edx
  10290f:	90                   	nop
    sum += addr[i];
  102910:	0f b6 0a             	movzbl (%edx),%ecx
  102913:	83 c2 01             	add    $0x1,%edx
  102916:	01 c8                	add    %ecx,%eax
  for(i=0; i<len; i++)
  102918:	39 fa                	cmp    %edi,%edx
  10291a:	75 f4                	jne    102910 <mpsearch1+0x30>
    if(memcmp(p, "_MP_", 4) == 0 && sum(p, sizeof(struct mp)) == 0)
  10291c:	84 c0                	test   %al,%al
  10291e:	74 0c                	je     10292c <mpsearch1+0x4c>
  for(p = addr; p < e; p += sizeof(struct mp))
  102920:	39 fb                	cmp    %edi,%ebx
  102922:	89 fe                	mov    %edi,%esi
  102924:	77 ca                	ja     1028f0 <mpsearch1+0x10>
      return (struct mp*)p;
  return 0;
}
  102926:	5b                   	pop    %ebx
  return 0;
  102927:	31 c0                	xor    %eax,%eax
}
  102929:	5e                   	pop    %esi
  10292a:	5f                   	pop    %edi
  10292b:	c3                   	ret    
  10292c:	89 f0                	mov    %esi,%eax
  10292e:	5b                   	pop    %ebx
  10292f:	5e                   	pop    %esi
  102930:	5f                   	pop    %edi
  102931:	c3                   	ret    
  102932:	8d b4 26 00 00 00 00 	lea    0x0(%esi,%eiz,1),%esi
  102939:	8d bc 27 00 00 00 00 	lea    0x0(%edi,%eiz,1),%edi

00102940 <mpbcpu>:
  return bcpu-cpus;
  102940:	a1 3c a8 10 00       	mov    0x10a83c,%eax
  102945:	2d a0 da 10 00       	sub    $0x10daa0,%eax
  10294a:	c1 f8 02             	sar    $0x2,%eax
  10294d:	69 c0 cf 46 7d 67    	imul   $0x677d46cf,%eax,%eax
}
  102953:	c3                   	ret    
  102954:	8d b6 00 00 00 00    	lea    0x0(%esi),%esi
  10295a:	8d bf 00 00 00 00    	lea    0x0(%edi),%edi

00102960 <mpinit>:
  return conf;
}

void
mpinit(void)
{
  102960:	55                   	push   %ebp
  102961:	57                   	push   %edi
  102962:	56                   	push   %esi
  102963:	53                   	push   %ebx
  102964:	83 ec 1c             	sub    $0x1c,%esp
  struct mp *mp;
  struct mpconf *conf;
  struct mpproc *proc;
  struct mpioapic *ioapic;

  bcpu = &cpus[0];
  102967:	c7 05 3c a8 10 00 a0 	movl   $0x10daa0,0x10a83c
  10296e:	da 10 00 
  if((p = ((bda[0x0F]<<8)|bda[0x0E]) << 4)){
  102971:	0f b6 05 0f 04 00 00 	movzbl 0x40f,%eax
  102978:	0f b6 15 0e 04 00 00 	movzbl 0x40e,%edx
  10297f:	c1 e0 08             	shl    $0x8,%eax
  102982:	09 d0                	or     %edx,%eax
  102984:	c1 e0 04             	shl    $0x4,%eax
  102987:	85 c0                	test   %eax,%eax
  102989:	75 1b                	jne    1029a6 <mpinit+0x46>
    p = ((bda[0x14]<<8)|bda[0x13])*1024;
  10298b:	0f b6 05 14 04 00 00 	movzbl 0x414,%eax
  102992:	0f b6 15 13 04 00 00 	movzbl 0x413,%edx
  102999:	c1 e0 08             	shl    $0x8,%eax
  10299c:	09 d0                	or     %edx,%eax
  10299e:	c1 e0 0a             	shl    $0xa,%eax
    if((mp = mpsearch1((uchar*)p-1024, 1024)))
  1029a1:	2d 00 04 00 00       	sub    $0x400,%eax
    if((mp = mpsearch1((uchar*)p, 1024)))
  1029a6:	ba 00 04 00 00       	mov    $0x400,%edx
  1029ab:	e8 30 ff ff ff       	call   1028e0 <mpsearch1>
  1029b0:	85 c0                	test   %eax,%eax
  1029b2:	89 c6                	mov    %eax,%esi
  1029b4:	0f 84 56 01 00 00    	je     102b10 <mpinit+0x1b0>
  if((mp = mpsearch()) == 0 || mp->physaddr == 0)
  1029ba:	8b 7e 04             	mov    0x4(%esi),%edi
  1029bd:	85 ff                	test   %edi,%edi
  1029bf:	0f 84 c3 00 00 00    	je     102a88 <mpinit+0x128>
  if(memcmp(conf, "PCMP", 4) != 0)
  1029c5:	83 ec 04             	sub    $0x4,%esp
  1029c8:	6a 04                	push   $0x4
  1029ca:	68 3a 62 10 00       	push   $0x10623a
  1029cf:	57                   	push   %edi
  1029d0:	e8 cb 13 00 00       	call   103da0 <memcmp>
  1029d5:	83 c4 10             	add    $0x10,%esp
  1029d8:	85 c0                	test   %eax,%eax
  1029da:	0f 85 a8 00 00 00    	jne    102a88 <mpinit+0x128>
  if(conf->version != 1 && conf->version != 4)
  1029e0:	0f b6 57 06          	movzbl 0x6(%edi),%edx
  1029e4:	80 fa 01             	cmp    $0x1,%dl
  1029e7:	0f 95 c3             	setne  %bl
  1029ea:	80 fa 04             	cmp    $0x4,%dl
  1029ed:	0f 95 c2             	setne  %dl
  1029f0:	20 d3                	and    %dl,%bl
  1029f2:	0f 85 90 00 00 00    	jne    102a88 <mpinit+0x128>
  if(sum((uchar*)conf, conf->length) != 0)
  1029f8:	0f b7 4f 04          	movzwl 0x4(%edi),%ecx
  for(i=0; i<len; i++)
  1029fc:	85 c9                	test   %ecx,%ecx
  1029fe:	74 19                	je     102a19 <mpinit+0xb9>
  102a00:	31 d2                	xor    %edx,%edx
  102a02:	8d b6 00 00 00 00    	lea    0x0(%esi),%esi
    sum += addr[i];
  102a08:	0f b6 2c 17          	movzbl (%edi,%edx,1),%ebp
  for(i=0; i<len; i++)
  102a0c:	83 c2 01             	add    $0x1,%edx
    sum += addr[i];
  102a0f:	01 e8                	add    %ebp,%eax
  for(i=0; i<len; i++)
  102a11:	39 d1                	cmp    %edx,%ecx
  102a13:	75 f3                	jne    102a08 <mpinit+0xa8>
  if(sum((uchar*)conf, conf->length) != 0)
  102a15:	84 c0                	test   %al,%al
  102a17:	75 6f                	jne    102a88 <mpinit+0x128>
  if((conf = mpconfig(&mp)) == 0)
    return;
  ismp = 1;
  lapic = (uint*)conf->lapicaddr;
  102a19:	8b 47 24             	mov    0x24(%edi),%eax
  for(p=(uchar*)(conf+1), e=(uchar*)conf+conf->length; p<e; ){
  102a1c:	8d 57 2c             	lea    0x2c(%edi),%edx
  ismp = 1;
  102a1f:	c7 05 84 da 10 00 01 	movl   $0x1,0x10da84
  102a26:	00 00 00 
  lapic = (uint*)conf->lapicaddr;
  102a29:	a3 78 da 10 00       	mov    %eax,0x10da78
  for(p=(uchar*)(conf+1), e=(uchar*)conf+conf->length; p<e; ){
  102a2e:	8d 04 0f             	lea    (%edi,%ecx,1),%eax
  102a31:	39 c2                	cmp    %eax,%edx
  102a33:	73 38                	jae    102a6d <mpinit+0x10d>
  102a35:	8b 3d 3c a8 10 00    	mov    0x10a83c,%edi
  102a3b:	89 74 24 0c          	mov    %esi,0xc(%esp)
  102a3f:	89 de                	mov    %ebx,%esi
    switch(*p){
  102a41:	0f b6 0a             	movzbl (%edx),%ecx
  102a44:	80 f9 04             	cmp    $0x4,%cl
  102a47:	0f 87 a3 00 00 00    	ja     102af0 <mpinit+0x190>
  102a4d:	ff 24 8d 84 62 10 00 	jmp    *0x106284(,%ecx,4)
  102a54:	8d 74 26 00          	lea    0x0(%esi,%eiz,1),%esi
      p += sizeof(struct mpioapic);
      continue;
    case MPBUS:
    case MPIOINTR:
    case MPLINTR:
      p += 8;
  102a58:	83 c2 08             	add    $0x8,%edx
  for(p=(uchar*)(conf+1), e=(uchar*)conf+conf->length; p<e; ){
  102a5b:	39 d0                	cmp    %edx,%eax
  102a5d:	77 e2                	ja     102a41 <mpinit+0xe1>
  102a5f:	89 f3                	mov    %esi,%ebx
  102a61:	8b 74 24 0c          	mov    0xc(%esp),%esi
  102a65:	84 db                	test   %bl,%bl
  102a67:	0f 85 c1 00 00 00    	jne    102b2e <mpinit+0x1ce>
    default:
      cprintf("mpinit: unknown config type %x\n", *p);
      panic("mpinit");
    }
  }
  if(mp->imcrp){
  102a6d:	80 7e 0c 00          	cmpb   $0x0,0xc(%esi)
  102a71:	74 15                	je     102a88 <mpinit+0x128>
  asm volatile("out %0,%1" : : "a" (data), "d" (port));
  102a73:	ba 22 00 00 00       	mov    $0x22,%edx
  102a78:	b8 70 00 00 00       	mov    $0x70,%eax
  102a7d:	ee                   	out    %al,(%dx)
  asm volatile("in %1,%0" : "=a" (data) : "d" (port));
  102a7e:	ba 23 00 00 00       	mov    $0x23,%edx
  102a83:	ec                   	in     (%dx),%al
    // Bochs doesn't support IMCR, so this doesn't run on Bochs.
    // But it would on real hardware.
    outb(0x22, 0x70);   // Select IMCR
    outb(0x23, inb(0x23) | 1);  // Mask external interrupts.
  102a84:	83 c8 01             	or     $0x1,%eax
  asm volatile("out %0,%1" : : "a" (data), "d" (port));
  102a87:	ee                   	out    %al,(%dx)
  }
}
  102a88:	83 c4 1c             	add    $0x1c,%esp
  102a8b:	5b                   	pop    %ebx
  102a8c:	5e                   	pop    %esi
  102a8d:	5f                   	pop    %edi
  102a8e:	5d                   	pop    %ebp
  102a8f:	c3                   	ret    
      if(ncpu != proc->apicid) {
  102a90:	0f b6 6a 01          	movzbl 0x1(%edx),%ebp
  102a94:	8b 0d 80 e0 10 00    	mov    0x10e080,%ecx
  102a9a:	39 cd                	cmp    %ecx,%ebp
  102a9c:	89 eb                	mov    %ebp,%ebx
  102a9e:	0f 85 9d 00 00 00    	jne    102b41 <mpinit+0x1e1>
      if(proc->flags & MPBOOT)
  102aa4:	f6 42 03 02          	testb  $0x2,0x3(%edx)
  102aa8:	74 11                	je     102abb <mpinit+0x15b>
        bcpu = &cpus[ncpu];
  102aaa:	69 f9 bc 00 00 00    	imul   $0xbc,%ecx,%edi
  102ab0:	be 01 00 00 00       	mov    $0x1,%esi
  102ab5:	81 c7 a0 da 10 00    	add    $0x10daa0,%edi
      cpus[ncpu].id = ncpu;
  102abb:	69 e9 bc 00 00 00    	imul   $0xbc,%ecx,%ebp
      ncpu++;
  102ac1:	83 c1 01             	add    $0x1,%ecx
      p += sizeof(struct mpproc);
  102ac4:	83 c2 14             	add    $0x14,%edx
      ncpu++;
  102ac7:	89 0d 80 e0 10 00    	mov    %ecx,0x10e080
      cpus[ncpu].id = ncpu;
  102acd:	88 9d a0 da 10 00    	mov    %bl,0x10daa0(%ebp)
      continue;
  102ad3:	eb 86                	jmp    102a5b <mpinit+0xfb>
  102ad5:	8d 76 00             	lea    0x0(%esi),%esi
      ioapicid = ioapic->apicno;
  102ad8:	0f b6 4a 01          	movzbl 0x1(%edx),%ecx
      p += sizeof(struct mpioapic);
  102adc:	83 c2 08             	add    $0x8,%edx
      ioapicid = ioapic->apicno;
  102adf:	88 0d 80 da 10 00    	mov    %cl,0x10da80
      continue;
  102ae5:	e9 71 ff ff ff       	jmp    102a5b <mpinit+0xfb>
  102aea:	8d b6 00 00 00 00    	lea    0x0(%esi),%esi
  102af0:	89 f3                	mov    %esi,%ebx
  102af2:	84 db                	test   %bl,%bl
  102af4:	75 43                	jne    102b39 <mpinit+0x1d9>
      cprintf("mpinit: unknown config type %x\n", *p);
  102af6:	83 ec 08             	sub    $0x8,%esp
  102af9:	51                   	push   %ecx
  102afa:	68 64 62 10 00       	push   $0x106264
  102aff:	e8 8c db ff ff       	call   100690 <cprintf>
      panic("mpinit");
  102b04:	c7 04 24 5a 62 10 00 	movl   $0x10625a,(%esp)
  102b0b:	e8 00 dd ff ff       	call   100810 <panic>
  return mpsearch1((uchar*)0xF0000, 0x10000);
  102b10:	ba 00 00 01 00       	mov    $0x10000,%edx
  102b15:	b8 00 00 0f 00       	mov    $0xf0000,%eax
  102b1a:	e8 c1 fd ff ff       	call   1028e0 <mpsearch1>
  if((mp = mpsearch()) == 0 || mp->physaddr == 0)
  102b1f:	85 c0                	test   %eax,%eax
  return mpsearch1((uchar*)0xF0000, 0x10000);
  102b21:	89 c6                	mov    %eax,%esi
  if((mp = mpsearch()) == 0 || mp->physaddr == 0)
  102b23:	0f 85 91 fe ff ff    	jne    1029ba <mpinit+0x5a>
  102b29:	e9 5a ff ff ff       	jmp    102a88 <mpinit+0x128>
  102b2e:	89 3d 3c a8 10 00    	mov    %edi,0x10a83c
  102b34:	e9 34 ff ff ff       	jmp    102a6d <mpinit+0x10d>
  102b39:	89 3d 3c a8 10 00    	mov    %edi,0x10a83c
  102b3f:	eb b5                	jmp    102af6 <mpinit+0x196>
  102b41:	89 f3                	mov    %esi,%ebx
  102b43:	84 db                	test   %bl,%bl
  102b45:	74 06                	je     102b4d <mpinit+0x1ed>
  102b47:	89 3d 3c a8 10 00    	mov    %edi,0x10a83c
        cprintf("mpinit: ncpu=%d apicpid=%d", ncpu, proc->apicid);
  102b4d:	50                   	push   %eax
  102b4e:	55                   	push   %ebp
  102b4f:	51                   	push   %ecx
  102b50:	68 3f 62 10 00       	push   $0x10623f
  102b55:	e8 36 db ff ff       	call   100690 <cprintf>
        panic("mpinit");
  102b5a:	c7 04 24 5a 62 10 00 	movl   $0x10625a,(%esp)
  102b61:	e8 aa dc ff ff       	call   100810 <panic>
  102b66:	66 90                	xchg   %ax,%ax
  102b68:	66 90                	xchg   %ax,%ax
  102b6a:	66 90                	xchg   %ax,%ax
  102b6c:	66 90                	xchg   %ax,%ax
  102b6e:	66 90                	xchg   %ax,%ax

00102b70 <picenable>:
}

void
picenable(int irq)
{
  picsetmask(irqmask & ~(1<<irq));
  102b70:	8b 4c 24 04          	mov    0x4(%esp),%ecx
  102b74:	b8 fe ff ff ff       	mov    $0xfffffffe,%eax
  102b79:	ba 21 00 00 00       	mov    $0x21,%edx
  102b7e:	d3 c0                	rol    %cl,%eax
  102b80:	66 23 05 00 a3 10 00 	and    0x10a300,%ax
  irqmask = mask;
  102b87:	66 a3 00 a3 10 00    	mov    %ax,0x10a300
  102b8d:	ee                   	out    %al,(%dx)
  102b8e:	ba a1 00 00 00       	mov    $0xa1,%edx
  outb(IO_PIC2+1, mask >> 8);
  102b93:	66 c1 e8 08          	shr    $0x8,%ax
  102b97:	ee                   	out    %al,(%dx)
  102b98:	c3                   	ret    
  102b99:	8d b4 26 00 00 00 00 	lea    0x0(%esi,%eiz,1),%esi

00102ba0 <picinit>:
}

// Initialize the 8259A interrupt controllers.
void
picinit(void)
{
  102ba0:	55                   	push   %ebp
  102ba1:	57                   	push   %edi
  102ba2:	b8 ff ff ff ff       	mov    $0xffffffff,%eax
  102ba7:	56                   	push   %esi
  102ba8:	53                   	push   %ebx
  102ba9:	bb 21 00 00 00       	mov    $0x21,%ebx
  102bae:	89 da                	mov    %ebx,%edx
  102bb0:	ee                   	out    %al,(%dx)
  102bb1:	b9 a1 00 00 00       	mov    $0xa1,%ecx
  102bb6:	89 ca                	mov    %ecx,%edx
  102bb8:	ee                   	out    %al,(%dx)
  102bb9:	bd 11 00 00 00       	mov    $0x11,%ebp
  102bbe:	be 20 00 00 00       	mov    $0x20,%esi
  102bc3:	89 e8                	mov    %ebp,%eax
  102bc5:	89 f2                	mov    %esi,%edx
  102bc7:	ee                   	out    %al,(%dx)
  102bc8:	b8 20 00 00 00       	mov    $0x20,%eax
  102bcd:	89 da                	mov    %ebx,%edx
  102bcf:	ee                   	out    %al,(%dx)
  102bd0:	b8 04 00 00 00       	mov    $0x4,%eax
  102bd5:	ee                   	out    %al,(%dx)
  102bd6:	bf 03 00 00 00       	mov    $0x3,%edi
  102bdb:	89 f8                	mov    %edi,%eax
  102bdd:	ee                   	out    %al,(%dx)
  102bde:	bb a0 00 00 00       	mov    $0xa0,%ebx
  102be3:	89 e8                	mov    %ebp,%eax
  102be5:	89 da                	mov    %ebx,%edx
  102be7:	ee                   	out    %al,(%dx)
  102be8:	b8 28 00 00 00       	mov    $0x28,%eax
  102bed:	89 ca                	mov    %ecx,%edx
  102bef:	ee                   	out    %al,(%dx)
  102bf0:	b8 02 00 00 00       	mov    $0x2,%eax
  102bf5:	ee                   	out    %al,(%dx)
  102bf6:	89 f8                	mov    %edi,%eax
  102bf8:	ee                   	out    %al,(%dx)
  102bf9:	bf 68 00 00 00       	mov    $0x68,%edi
  102bfe:	89 f2                	mov    %esi,%edx
  102c00:	89 f8                	mov    %edi,%eax
  102c02:	ee                   	out    %al,(%dx)
  102c03:	b9 0a 00 00 00       	mov    $0xa,%ecx
  102c08:	89 c8                	mov    %ecx,%eax
  102c0a:	ee                   	out    %al,(%dx)
  102c0b:	89 f8                	mov    %edi,%eax
  102c0d:	89 da                	mov    %ebx,%edx
  102c0f:	ee                   	out    %al,(%dx)
  102c10:	89 c8                	mov    %ecx,%eax
  102c12:	ee                   	out    %al,(%dx)
  outb(IO_PIC1, 0x0a);             // read IRR by default

  outb(IO_PIC2, 0x68);             // OCW3
  outb(IO_PIC2, 0x0a);             // OCW3

  if(irqmask != 0xFFFF)
  102c13:	0f b7 05 00 a3 10 00 	movzwl 0x10a300,%eax
  102c1a:	66 83 f8 ff          	cmp    $0xffff,%ax
  102c1e:	74 10                	je     102c30 <picinit+0x90>
  102c20:	ba 21 00 00 00       	mov    $0x21,%edx
  102c25:	ee                   	out    %al,(%dx)
  102c26:	ba a1 00 00 00       	mov    $0xa1,%edx
  outb(IO_PIC2+1, mask >> 8);
  102c2b:	66 c1 e8 08          	shr    $0x8,%ax
  102c2f:	ee                   	out    %al,(%dx)
    picsetmask(irqmask);
}
  102c30:	5b                   	pop    %ebx
  102c31:	5e                   	pop    %esi
  102c32:	5f                   	pop    %edi
  102c33:	5d                   	pop    %ebp
  102c34:	c3                   	ret    
  102c35:	66 90                	xchg   %ax,%ax
  102c37:	66 90                	xchg   %ax,%ax
  102c39:	66 90                	xchg   %ax,%ax
  102c3b:	66 90                	xchg   %ax,%ax
  102c3d:	66 90                	xchg   %ax,%ax
  102c3f:	90                   	nop

00102c40 <pipealloc>:
  int writeopen;  // write fd is still open
};

int
pipealloc(struct file **f0, struct file **f1)
{
  102c40:	57                   	push   %edi
  102c41:	56                   	push   %esi
  102c42:	53                   	push   %ebx
  102c43:	8b 74 24 10          	mov    0x10(%esp),%esi
  102c47:	8b 5c 24 14          	mov    0x14(%esp),%ebx
  struct pipe *p;

  p = 0;
  *f0 = *f1 = 0;
  102c4b:	c7 03 00 00 00 00    	movl   $0x0,(%ebx)
  102c51:	c7 06 00 00 00 00    	movl   $0x0,(%esi)
  if((*f0 = filealloc()) == 0 || (*f1 = filealloc()) == 0)
  102c57:	e8 04 e2 ff ff       	call   100e60 <filealloc>
  102c5c:	85 c0                	test   %eax,%eax
  102c5e:	89 06                	mov    %eax,(%esi)
  102c60:	0f 84 ac 00 00 00    	je     102d12 <pipealloc+0xd2>
  102c66:	e8 f5 e1 ff ff       	call   100e60 <filealloc>
  102c6b:	85 c0                	test   %eax,%eax
  102c6d:	89 03                	mov    %eax,(%ebx)
  102c6f:	0f 84 8b 00 00 00    	je     102d00 <pipealloc+0xc0>
    goto bad;
  if((p = (struct pipe*)kalloc(PAGE)) == 0)
  102c75:	83 ec 0c             	sub    $0xc,%esp
  102c78:	68 00 10 00 00       	push   $0x1000
  102c7d:	e8 fe f7 ff ff       	call   102480 <kalloc>
  102c82:	83 c4 10             	add    $0x10,%esp
  102c85:	85 c0                	test   %eax,%eax
  102c87:	89 c7                	mov    %eax,%edi
  102c89:	0f 84 a1 00 00 00    	je     102d30 <pipealloc+0xf0>
    goto bad;
  p->readopen = 1;
  p->writeopen = 1;
  p->nwrite = 0;
  p->nread = 0;
  initlock(&p->lock, "pipe");
  102c8f:	83 ec 08             	sub    $0x8,%esp
  p->readopen = 1;
  102c92:	c7 80 3c 02 00 00 01 	movl   $0x1,0x23c(%eax)
  102c99:	00 00 00 
  p->writeopen = 1;
  102c9c:	c7 80 40 02 00 00 01 	movl   $0x1,0x240(%eax)
  102ca3:	00 00 00 
  p->nwrite = 0;
  102ca6:	c7 80 38 02 00 00 00 	movl   $0x0,0x238(%eax)
  102cad:	00 00 00 
  p->nread = 0;
  102cb0:	c7 80 34 02 00 00 00 	movl   $0x0,0x234(%eax)
  102cb7:	00 00 00 
  initlock(&p->lock, "pipe");
  102cba:	68 98 62 10 00       	push   $0x106298
  102cbf:	50                   	push   %eax
  102cc0:	e8 ab 0e 00 00       	call   103b70 <initlock>
  (*f0)->type = FD_PIPE;
  102cc5:	8b 06                	mov    (%esi),%eax
  (*f0)->pipe = p;
  (*f1)->type = FD_PIPE;
  (*f1)->readable = 0;
  (*f1)->writable = 1;
  (*f1)->pipe = p;
  return 0;
  102cc7:	83 c4 10             	add    $0x10,%esp
  (*f0)->type = FD_PIPE;
  102cca:	c7 00 01 00 00 00    	movl   $0x1,(%eax)
  (*f0)->readable = 1;
  102cd0:	8b 06                	mov    (%esi),%eax
  102cd2:	c6 40 08 01          	movb   $0x1,0x8(%eax)
  (*f0)->writable = 0;
  102cd6:	8b 06                	mov    (%esi),%eax
  102cd8:	c6 40 09 00          	movb   $0x0,0x9(%eax)
  (*f0)->pipe = p;
  102cdc:	8b 06                	mov    (%esi),%eax
  102cde:	89 78 0c             	mov    %edi,0xc(%eax)
  (*f1)->type = FD_PIPE;
  102ce1:	8b 03                	mov    (%ebx),%eax
  102ce3:	c7 00 01 00 00 00    	movl   $0x1,(%eax)
  (*f1)->readable = 0;
  102ce9:	8b 03                	mov    (%ebx),%eax
  102ceb:	c6 40 08 00          	movb   $0x0,0x8(%eax)
  (*f1)->writable = 1;
  102cef:	8b 03                	mov    (%ebx),%eax
  102cf1:	c6 40 09 01          	movb   $0x1,0x9(%eax)
  (*f1)->pipe = p;
  102cf5:	8b 03                	mov    (%ebx),%eax
  102cf7:	89 78 0c             	mov    %edi,0xc(%eax)
  return 0;
  102cfa:	31 c0                	xor    %eax,%eax
  if(*f0)
    fileclose(*f0);
  if(*f1)
    fileclose(*f1);
  return -1;
}
  102cfc:	5b                   	pop    %ebx
  102cfd:	5e                   	pop    %esi
  102cfe:	5f                   	pop    %edi
  102cff:	c3                   	ret    
  if(*f0)
  102d00:	8b 06                	mov    (%esi),%eax
  102d02:	85 c0                	test   %eax,%eax
  102d04:	74 1e                	je     102d24 <pipealloc+0xe4>
    fileclose(*f0);
  102d06:	83 ec 0c             	sub    $0xc,%esp
  102d09:	50                   	push   %eax
  102d0a:	e8 11 e2 ff ff       	call   100f20 <fileclose>
  102d0f:	83 c4 10             	add    $0x10,%esp
  if(*f1)
  102d12:	8b 03                	mov    (%ebx),%eax
  102d14:	85 c0                	test   %eax,%eax
  102d16:	74 0c                	je     102d24 <pipealloc+0xe4>
    fileclose(*f1);
  102d18:	83 ec 0c             	sub    $0xc,%esp
  102d1b:	50                   	push   %eax
  102d1c:	e8 ff e1 ff ff       	call   100f20 <fileclose>
  102d21:	83 c4 10             	add    $0x10,%esp
}
  102d24:	5b                   	pop    %ebx
  return -1;
  102d25:	b8 ff ff ff ff       	mov    $0xffffffff,%eax
}
  102d2a:	5e                   	pop    %esi
  102d2b:	5f                   	pop    %edi
  102d2c:	c3                   	ret    
  102d2d:	8d 76 00             	lea    0x0(%esi),%esi
  if(*f0)
  102d30:	8b 06                	mov    (%esi),%eax
  102d32:	85 c0                	test   %eax,%eax
  102d34:	75 d0                	jne    102d06 <pipealloc+0xc6>
  102d36:	eb da                	jmp    102d12 <pipealloc+0xd2>
  102d38:	90                   	nop
  102d39:	8d b4 26 00 00 00 00 	lea    0x0(%esi,%eiz,1),%esi

00102d40 <pipeclose>:

void
pipeclose(struct pipe *p, int writable)
{
  102d40:	56                   	push   %esi
  102d41:	53                   	push   %ebx
  102d42:	83 ec 10             	sub    $0x10,%esp
  102d45:	8b 5c 24 1c          	mov    0x1c(%esp),%ebx
  102d49:	8b 74 24 20          	mov    0x20(%esp),%esi
  acquire(&p->lock);
  102d4d:	53                   	push   %ebx
  102d4e:	e8 3d 0e 00 00       	call   103b90 <acquire>
  if(writable){
  102d53:	83 c4 10             	add    $0x10,%esp
  102d56:	85 f6                	test   %esi,%esi
  102d58:	74 46                	je     102da0 <pipeclose+0x60>
    p->writeopen = 0;
    wakeup(&p->nread);
  102d5a:	8d 83 34 02 00 00    	lea    0x234(%ebx),%eax
  102d60:	83 ec 0c             	sub    $0xc,%esp
    p->writeopen = 0;
  102d63:	c7 83 40 02 00 00 00 	movl   $0x0,0x240(%ebx)
  102d6a:	00 00 00 
    wakeup(&p->nread);
  102d6d:	50                   	push   %eax
  102d6e:	e8 dd 0a 00 00       	call   103850 <wakeup>
  102d73:	83 c4 10             	add    $0x10,%esp
  } else {
    p->readopen = 0;
    wakeup(&p->nwrite);
  }
  if(p->readopen == 0 && p->writeopen == 0) {
  102d76:	8b 93 3c 02 00 00    	mov    0x23c(%ebx),%edx
  102d7c:	85 d2                	test   %edx,%edx
  102d7e:	75 0a                	jne    102d8a <pipeclose+0x4a>
  102d80:	8b 83 40 02 00 00    	mov    0x240(%ebx),%eax
  102d86:	85 c0                	test   %eax,%eax
  102d88:	74 36                	je     102dc0 <pipeclose+0x80>
    release(&p->lock);
    kfree((char*)p, PAGE);
  } else
    release(&p->lock);
  102d8a:	89 5c 24 10          	mov    %ebx,0x10(%esp)
}
  102d8e:	83 c4 04             	add    $0x4,%esp
  102d91:	5b                   	pop    %ebx
  102d92:	5e                   	pop    %esi
    release(&p->lock);
  102d93:	e9 98 0f 00 00       	jmp    103d30 <release>
  102d98:	90                   	nop
  102d99:	8d b4 26 00 00 00 00 	lea    0x0(%esi,%eiz,1),%esi
    wakeup(&p->nwrite);
  102da0:	8d 83 38 02 00 00    	lea    0x238(%ebx),%eax
  102da6:	83 ec 0c             	sub    $0xc,%esp
    p->readopen = 0;
  102da9:	c7 83 3c 02 00 00 00 	movl   $0x0,0x23c(%ebx)
  102db0:	00 00 00 
    wakeup(&p->nwrite);
  102db3:	50                   	push   %eax
  102db4:	e8 97 0a 00 00       	call   103850 <wakeup>
  102db9:	83 c4 10             	add    $0x10,%esp
  102dbc:	eb b8                	jmp    102d76 <pipeclose+0x36>
  102dbe:	66 90                	xchg   %ax,%ax
    release(&p->lock);
  102dc0:	83 ec 0c             	sub    $0xc,%esp
  102dc3:	53                   	push   %ebx
  102dc4:	e8 67 0f 00 00       	call   103d30 <release>
    kfree((char*)p, PAGE);
  102dc9:	89 5c 24 20          	mov    %ebx,0x20(%esp)
  102dcd:	c7 44 24 24 00 10 00 	movl   $0x1000,0x24(%esp)
  102dd4:	00 
}
  102dd5:	83 c4 14             	add    $0x14,%esp
  102dd8:	5b                   	pop    %ebx
  102dd9:	5e                   	pop    %esi
    kfree((char*)p, PAGE);
  102dda:	e9 51 f5 ff ff       	jmp    102330 <kfree>
  102ddf:	90                   	nop

00102de0 <pipewrite>:

int
pipewrite(struct pipe *p, char *addr, int n)
{
  102de0:	55                   	push   %ebp
  102de1:	57                   	push   %edi
  102de2:	56                   	push   %esi
  102de3:	53                   	push   %ebx
  102de4:	83 ec 28             	sub    $0x28,%esp
  102de7:	8b 6c 24 3c          	mov    0x3c(%esp),%ebp
  int i;

  acquire(&p->lock);
  102deb:	55                   	push   %ebp
  102dec:	e8 9f 0d 00 00       	call   103b90 <acquire>
  for(i = 0; i < n; i++){
  102df1:	83 c4 10             	add    $0x10,%esp
  102df4:	8b 44 24 38          	mov    0x38(%esp),%eax
  102df8:	85 c0                	test   %eax,%eax
  102dfa:	0f 8e bc 00 00 00    	jle    102ebc <pipewrite+0xdc>
  102e00:	8b 7c 24 34          	mov    0x34(%esp),%edi
  102e04:	8b 44 24 38          	mov    0x38(%esp),%eax
  102e08:	8d b5 34 02 00 00    	lea    0x234(%ebp),%esi
  102e0e:	8b 8d 38 02 00 00    	mov    0x238(%ebp),%ecx
  102e14:	8d 9d 38 02 00 00    	lea    0x238(%ebp),%ebx
  102e1a:	01 f8                	add    %edi,%eax
  102e1c:	89 44 24 0c          	mov    %eax,0xc(%esp)
    while(p->nwrite == p->nread + PIPESIZE) {  //DOC: pipewrite-full
  102e20:	8b 85 34 02 00 00    	mov    0x234(%ebp),%eax
  102e26:	05 00 02 00 00       	add    $0x200,%eax
  102e2b:	39 c1                	cmp    %eax,%ecx
  102e2d:	74 40                	je     102e6f <pipewrite+0x8f>
  102e2f:	eb 61                	jmp    102e92 <pipewrite+0xb2>
  102e31:	8d b4 26 00 00 00 00 	lea    0x0(%esi,%eiz,1),%esi
      if(p->readopen == 0 || proc->killed){
  102e38:	65 a1 04 00 00 00    	mov    %gs:0x4,%eax
  102e3e:	8b 40 24             	mov    0x24(%eax),%eax
  102e41:	85 c0                	test   %eax,%eax
  102e43:	75 34                	jne    102e79 <pipewrite+0x99>
        release(&p->lock);
        return -1;
      }
      wakeup(&p->nread);
  102e45:	83 ec 0c             	sub    $0xc,%esp
  102e48:	56                   	push   %esi
  102e49:	e8 02 0a 00 00       	call   103850 <wakeup>
      sleep(&p->nwrite, &p->lock);  //DOC: pipewrite-sleep
  102e4e:	5a                   	pop    %edx
  102e4f:	59                   	pop    %ecx
  102e50:	55                   	push   %ebp
  102e51:	53                   	push   %ebx
  102e52:	e8 39 09 00 00       	call   103790 <sleep>
    while(p->nwrite == p->nread + PIPESIZE) {  //DOC: pipewrite-full
  102e57:	8b 85 34 02 00 00    	mov    0x234(%ebp),%eax
  102e5d:	8b 95 38 02 00 00    	mov    0x238(%ebp),%edx
  102e63:	83 c4 10             	add    $0x10,%esp
  102e66:	05 00 02 00 00       	add    $0x200,%eax
  102e6b:	39 c2                	cmp    %eax,%edx
  102e6d:	75 29                	jne    102e98 <pipewrite+0xb8>
      if(p->readopen == 0 || proc->killed){
  102e6f:	8b 85 3c 02 00 00    	mov    0x23c(%ebp),%eax
  102e75:	85 c0                	test   %eax,%eax
  102e77:	75 bf                	jne    102e38 <pipewrite+0x58>
        release(&p->lock);
  102e79:	83 ec 0c             	sub    $0xc,%esp
  102e7c:	55                   	push   %ebp
  102e7d:	e8 ae 0e 00 00       	call   103d30 <release>
        return -1;
  102e82:	83 c4 10             	add    $0x10,%esp
  102e85:	b8 ff ff ff ff       	mov    $0xffffffff,%eax
    p->data[p->nwrite++ % PIPESIZE] = addr[i];
  }
  wakeup(&p->nread);  //DOC: pipewrite-wakeup1
  release(&p->lock);
  return n;
}
  102e8a:	83 c4 1c             	add    $0x1c,%esp
  102e8d:	5b                   	pop    %ebx
  102e8e:	5e                   	pop    %esi
  102e8f:	5f                   	pop    %edi
  102e90:	5d                   	pop    %ebp
  102e91:	c3                   	ret    
    while(p->nwrite == p->nread + PIPESIZE) {  //DOC: pipewrite-full
  102e92:	89 ca                	mov    %ecx,%edx
  102e94:	8d 74 26 00          	lea    0x0(%esi,%eiz,1),%esi
    p->data[p->nwrite++ % PIPESIZE] = addr[i];
  102e98:	8d 4a 01             	lea    0x1(%edx),%ecx
  102e9b:	83 c7 01             	add    $0x1,%edi
  102e9e:	81 e2 ff 01 00 00    	and    $0x1ff,%edx
  102ea4:	89 8d 38 02 00 00    	mov    %ecx,0x238(%ebp)
  102eaa:	0f b6 47 ff          	movzbl -0x1(%edi),%eax
  for(i = 0; i < n; i++){
  102eae:	39 7c 24 0c          	cmp    %edi,0xc(%esp)
    p->data[p->nwrite++ % PIPESIZE] = addr[i];
  102eb2:	88 44 15 34          	mov    %al,0x34(%ebp,%edx,1)
  for(i = 0; i < n; i++){
  102eb6:	0f 85 64 ff ff ff    	jne    102e20 <pipewrite+0x40>
  wakeup(&p->nread);  //DOC: pipewrite-wakeup1
  102ebc:	8d 95 34 02 00 00    	lea    0x234(%ebp),%edx
  102ec2:	83 ec 0c             	sub    $0xc,%esp
  102ec5:	52                   	push   %edx
  102ec6:	e8 85 09 00 00       	call   103850 <wakeup>
  release(&p->lock);
  102ecb:	89 2c 24             	mov    %ebp,(%esp)
  102ece:	e8 5d 0e 00 00       	call   103d30 <release>
  return n;
  102ed3:	83 c4 10             	add    $0x10,%esp
  102ed6:	8b 44 24 38          	mov    0x38(%esp),%eax
  102eda:	eb ae                	jmp    102e8a <pipewrite+0xaa>
  102edc:	8d 74 26 00          	lea    0x0(%esi,%eiz,1),%esi

00102ee0 <piperead>:

int
piperead(struct pipe *p, char *addr, int n)
{
  102ee0:	55                   	push   %ebp
  102ee1:	57                   	push   %edi
  102ee2:	56                   	push   %esi
  102ee3:	53                   	push   %ebx
  102ee4:	83 ec 18             	sub    $0x18,%esp
  102ee7:	8b 5c 24 2c          	mov    0x2c(%esp),%ebx
  102eeb:	8b 7c 24 30          	mov    0x30(%esp),%edi
  102eef:	8b 74 24 34          	mov    0x34(%esp),%esi
  int i;

  acquire(&p->lock);
  102ef3:	53                   	push   %ebx
  102ef4:	e8 97 0c 00 00       	call   103b90 <acquire>
  while(p->nread == p->nwrite && p->writeopen){  //DOC: pipe-empty
  102ef9:	83 c4 10             	add    $0x10,%esp
  102efc:	8b 93 34 02 00 00    	mov    0x234(%ebx),%edx
  102f02:	3b 93 38 02 00 00    	cmp    0x238(%ebx),%edx
  102f08:	75 6e                	jne    102f78 <piperead+0x98>
  102f0a:	8b 8b 40 02 00 00    	mov    0x240(%ebx),%ecx
  102f10:	85 c9                	test   %ecx,%ecx
  102f12:	0f 84 b8 00 00 00    	je     102fd0 <piperead+0xf0>
  102f18:	8d ab 34 02 00 00    	lea    0x234(%ebx),%ebp
  102f1e:	eb 29                	jmp    102f49 <piperead+0x69>
    if(proc->killed){
      release(&p->lock);
      return -1;
    }
    sleep(&p->nread, &p->lock); //DOC: piperead-sleep
  102f20:	83 ec 08             	sub    $0x8,%esp
  102f23:	53                   	push   %ebx
  102f24:	55                   	push   %ebp
  102f25:	e8 66 08 00 00       	call   103790 <sleep>
  while(p->nread == p->nwrite && p->writeopen){  //DOC: pipe-empty
  102f2a:	83 c4 10             	add    $0x10,%esp
  102f2d:	8b 93 34 02 00 00    	mov    0x234(%ebx),%edx
  102f33:	3b 93 38 02 00 00    	cmp    0x238(%ebx),%edx
  102f39:	75 3d                	jne    102f78 <piperead+0x98>
  102f3b:	8b 83 40 02 00 00    	mov    0x240(%ebx),%eax
  102f41:	85 c0                	test   %eax,%eax
  102f43:	0f 84 87 00 00 00    	je     102fd0 <piperead+0xf0>
    if(proc->killed){
  102f49:	65 a1 04 00 00 00    	mov    %gs:0x4,%eax
  102f4f:	8b 50 24             	mov    0x24(%eax),%edx
  102f52:	85 d2                	test   %edx,%edx
  102f54:	74 ca                	je     102f20 <piperead+0x40>
      release(&p->lock);
  102f56:	83 ec 0c             	sub    $0xc,%esp
      return -1;
  102f59:	bd ff ff ff ff       	mov    $0xffffffff,%ebp
      release(&p->lock);
  102f5e:	53                   	push   %ebx
  102f5f:	e8 cc 0d 00 00       	call   103d30 <release>
      return -1;
  102f64:	83 c4 10             	add    $0x10,%esp
    addr[i] = p->data[p->nread++ % PIPESIZE];
  }
  wakeup(&p->nwrite);  //DOC: piperead-wakeup
  release(&p->lock);
  return i;
}
  102f67:	89 e8                	mov    %ebp,%eax
  102f69:	83 c4 0c             	add    $0xc,%esp
  102f6c:	5b                   	pop    %ebx
  102f6d:	5e                   	pop    %esi
  102f6e:	5f                   	pop    %edi
  102f6f:	5d                   	pop    %ebp
  102f70:	c3                   	ret    
  102f71:	8d b4 26 00 00 00 00 	lea    0x0(%esi,%eiz,1),%esi
  for(i = 0; i < n; i++){  //DOC: piperead-copy
  102f78:	85 f6                	test   %esi,%esi
  102f7a:	7e 54                	jle    102fd0 <piperead+0xf0>
    if(p->nread == p->nwrite)
  102f7c:	31 ed                	xor    %ebp,%ebp
  102f7e:	eb 0e                	jmp    102f8e <piperead+0xae>
  102f80:	8b 93 34 02 00 00    	mov    0x234(%ebx),%edx
  102f86:	3b 93 38 02 00 00    	cmp    0x238(%ebx),%edx
  102f8c:	74 1e                	je     102fac <piperead+0xcc>
    addr[i] = p->data[p->nread++ % PIPESIZE];
  102f8e:	8d 42 01             	lea    0x1(%edx),%eax
  102f91:	81 e2 ff 01 00 00    	and    $0x1ff,%edx
  102f97:	89 83 34 02 00 00    	mov    %eax,0x234(%ebx)
  102f9d:	0f b6 44 13 34       	movzbl 0x34(%ebx,%edx,1),%eax
  102fa2:	88 04 2f             	mov    %al,(%edi,%ebp,1)
  for(i = 0; i < n; i++){  //DOC: piperead-copy
  102fa5:	83 c5 01             	add    $0x1,%ebp
  102fa8:	39 ee                	cmp    %ebp,%esi
  102faa:	75 d4                	jne    102f80 <piperead+0xa0>
  wakeup(&p->nwrite);  //DOC: piperead-wakeup
  102fac:	8d 83 38 02 00 00    	lea    0x238(%ebx),%eax
  102fb2:	83 ec 0c             	sub    $0xc,%esp
  102fb5:	50                   	push   %eax
  102fb6:	e8 95 08 00 00       	call   103850 <wakeup>
  release(&p->lock);
  102fbb:	89 1c 24             	mov    %ebx,(%esp)
  102fbe:	e8 6d 0d 00 00       	call   103d30 <release>
  return i;
  102fc3:	83 c4 10             	add    $0x10,%esp
}
  102fc6:	89 e8                	mov    %ebp,%eax
  102fc8:	83 c4 0c             	add    $0xc,%esp
  102fcb:	5b                   	pop    %ebx
  102fcc:	5e                   	pop    %esi
  102fcd:	5f                   	pop    %edi
  102fce:	5d                   	pop    %ebp
  102fcf:	c3                   	ret    
    if(p->nread == p->nwrite)
  102fd0:	31 ed                	xor    %ebp,%ebp
  102fd2:	eb d8                	jmp    102fac <piperead+0xcc>
  102fd4:	66 90                	xchg   %ax,%ax
  102fd6:	66 90                	xchg   %ax,%ax
  102fd8:	66 90                	xchg   %ax,%ax
  102fda:	66 90                	xchg   %ax,%ax
  102fdc:	66 90                	xchg   %ax,%ax
  102fde:	66 90                	xchg   %ax,%ax

00102fe0 <allocproc>:
// Look in the process table for an UNUSED proc.
// If found, change state to EMBRYO and return it.
// Otherwise return 0.
static struct proc*
allocproc(void)
{
  102fe0:	53                   	push   %ebx
  struct proc *p;
  char *sp;

  acquire(&ptable.lock);
  for(p = ptable.proc; p < &ptable.proc[NPROC]; p++)
  102fe1:	bb d4 e0 10 00       	mov    $0x10e0d4,%ebx
{
  102fe6:	83 ec 14             	sub    $0x14,%esp
  acquire(&ptable.lock);
  102fe9:	68 a0 e0 10 00       	push   $0x10e0a0
  102fee:	e8 9d 0b 00 00       	call   103b90 <acquire>
  102ff3:	83 c4 10             	add    $0x10,%esp
  102ff6:	eb 17                	jmp    10300f <allocproc+0x2f>
  102ff8:	90                   	nop
  102ff9:	8d b4 26 00 00 00 00 	lea    0x0(%esi,%eiz,1),%esi
  for(p = ptable.proc; p < &ptable.proc[NPROC]; p++)
  103000:	83 c3 7c             	add    $0x7c,%ebx
  103003:	81 fb d4 ff 10 00    	cmp    $0x10ffd4,%ebx
  103009:	0f 83 81 00 00 00    	jae    103090 <allocproc+0xb0>
    if(p->state == UNUSED)
  10300f:	8b 43 0c             	mov    0xc(%ebx),%eax
  103012:	85 c0                	test   %eax,%eax
  103014:	75 ea                	jne    103000 <allocproc+0x20>
  release(&ptable.lock);
  return 0;

found:
  p->state = EMBRYO;
  p->pid = nextpid++;
  103016:	a1 04 a3 10 00       	mov    0x10a304,%eax
  release(&ptable.lock);
  10301b:	83 ec 0c             	sub    $0xc,%esp
  p->state = EMBRYO;
  10301e:	c7 43 0c 01 00 00 00 	movl   $0x1,0xc(%ebx)
  p->pid = nextpid++;
  103025:	8d 50 01             	lea    0x1(%eax),%edx
  103028:	89 43 10             	mov    %eax,0x10(%ebx)
  release(&ptable.lock);
  10302b:	68 a0 e0 10 00       	push   $0x10e0a0
  p->pid = nextpid++;
  103030:	89 15 04 a3 10 00    	mov    %edx,0x10a304
  release(&ptable.lock);
  103036:	e8 f5 0c 00 00       	call   103d30 <release>

  // Allocate kernel stack if necessary.
  if((p->kstack = kalloc(KSTACKSIZE)) == 0){
  10303b:	c7 04 24 00 10 00 00 	movl   $0x1000,(%esp)
  103042:	e8 39 f4 ff ff       	call   102480 <kalloc>
  103047:	83 c4 10             	add    $0x10,%esp
  10304a:	85 c0                	test   %eax,%eax
  10304c:	89 43 08             	mov    %eax,0x8(%ebx)
  10304f:	74 58                	je     1030a9 <allocproc+0xc9>
    return 0;
  }
  sp = p->kstack + KSTACKSIZE;
  
  // Leave room for trap frame.
  sp -= sizeof *p->tf;
  103051:	8d 90 b4 0f 00 00    	lea    0xfb4(%eax),%edx
  sp -= 4;
  *(uint*)sp = (uint)trapret;

  sp -= sizeof *p->context;
  p->context = (struct context*)sp;
  memset(p->context, 0, sizeof *p->context);
  103057:	83 ec 04             	sub    $0x4,%esp
  sp -= sizeof *p->context;
  10305a:	05 9c 0f 00 00       	add    $0xf9c,%eax
  sp -= sizeof *p->tf;
  10305f:	89 53 18             	mov    %edx,0x18(%ebx)
  *(uint*)sp = (uint)trapret;
  103062:	c7 40 14 8a 4e 10 00 	movl   $0x104e8a,0x14(%eax)
  p->context = (struct context*)sp;
  103069:	89 43 1c             	mov    %eax,0x1c(%ebx)
  memset(p->context, 0, sizeof *p->context);
  10306c:	6a 14                	push   $0x14
  10306e:	6a 00                	push   $0x0
  103070:	50                   	push   %eax
  103071:	e8 0a 0d 00 00       	call   103d80 <memset>
  p->context->eip = (uint)forkret;
  103076:	8b 43 1c             	mov    0x1c(%ebx),%eax
  return p;
  103079:	83 c4 10             	add    $0x10,%esp
  p->context->eip = (uint)forkret;
  10307c:	c7 40 10 c0 30 10 00 	movl   $0x1030c0,0x10(%eax)
}
  103083:	83 c4 08             	add    $0x8,%esp
  103086:	89 d8                	mov    %ebx,%eax
  103088:	5b                   	pop    %ebx
  103089:	c3                   	ret    
  10308a:	8d b6 00 00 00 00    	lea    0x0(%esi),%esi
  release(&ptable.lock);
  103090:	83 ec 0c             	sub    $0xc,%esp
  return 0;
  103093:	31 db                	xor    %ebx,%ebx
  release(&ptable.lock);
  103095:	68 a0 e0 10 00       	push   $0x10e0a0
  10309a:	e8 91 0c 00 00       	call   103d30 <release>
  return 0;
  10309f:	83 c4 10             	add    $0x10,%esp
}
  1030a2:	89 d8                	mov    %ebx,%eax
  1030a4:	83 c4 08             	add    $0x8,%esp
  1030a7:	5b                   	pop    %ebx
  1030a8:	c3                   	ret    
    p->state = UNUSED;
  1030a9:	c7 43 0c 00 00 00 00 	movl   $0x0,0xc(%ebx)
    return 0;
  1030b0:	31 db                	xor    %ebx,%ebx
  1030b2:	eb cf                	jmp    103083 <allocproc+0xa3>
  1030b4:	8d b6 00 00 00 00    	lea    0x0(%esi),%esi
  1030ba:	8d bf 00 00 00 00    	lea    0x0(%edi),%edi

001030c0 <forkret>:

// A fork child's very first scheduling by scheduler()
// will swtch here.  "Return" to user space.
